   1              	 .syntax unified
   2              	 .cpu cortex-m4
   3              	 .eabi_attribute 27,3
   4              	 .fpu fpv4-sp-d16
   5              	 .eabi_attribute 20,1
   6              	 .eabi_attribute 21,1
   7              	 .eabi_attribute 23,3
   8              	 .eabi_attribute 24,1
   9              	 .eabi_attribute 25,1
  10              	 .eabi_attribute 26,1
  11              	 .eabi_attribute 30,6
  12              	 .eabi_attribute 34,1
  13              	 .eabi_attribute 18,4
  14              	 .thumb
  15              	 .file "xmc_eth_mac.c"
  16              	 .text
  17              	.Ltext0:
  18              	 .cfi_sections .debug_frame
  19              	 .section .text.XMC_ETH_MAC_Reset,"ax",%progbits
  20              	 .align 2
  21              	 .thumb
  22              	 .thumb_func
  24              	XMC_ETH_MAC_Reset:
  25              	.LFB128:
  26              	 .file 1 "D:\\Naukowe\\BLDC_workspace\\PWM_from_ex\\Libraries\\XMCLib\\inc/xmc_eth_mac.h"
   1:D:\Naukowe\BLDC_workspace\PWM_from_ex\Libraries\XMCLib\inc\xmc_eth_mac.h **** 
   2:D:\Naukowe\BLDC_workspace\PWM_from_ex\Libraries\XMCLib\inc\xmc_eth_mac.h **** /**
   3:D:\Naukowe\BLDC_workspace\PWM_from_ex\Libraries\XMCLib\inc\xmc_eth_mac.h ****  * @file xmc_eth_mac.h
   4:D:\Naukowe\BLDC_workspace\PWM_from_ex\Libraries\XMCLib\inc\xmc_eth_mac.h ****  * @date 2015-10-27
   5:D:\Naukowe\BLDC_workspace\PWM_from_ex\Libraries\XMCLib\inc\xmc_eth_mac.h ****  *
   6:D:\Naukowe\BLDC_workspace\PWM_from_ex\Libraries\XMCLib\inc\xmc_eth_mac.h ****  * @cond
   7:D:\Naukowe\BLDC_workspace\PWM_from_ex\Libraries\XMCLib\inc\xmc_eth_mac.h ****  **************************************************************************************************
   8:D:\Naukowe\BLDC_workspace\PWM_from_ex\Libraries\XMCLib\inc\xmc_eth_mac.h ****  * XMClib v2.1.2 - XMC Peripheral Driver Library 
   9:D:\Naukowe\BLDC_workspace\PWM_from_ex\Libraries\XMCLib\inc\xmc_eth_mac.h ****  *
  10:D:\Naukowe\BLDC_workspace\PWM_from_ex\Libraries\XMCLib\inc\xmc_eth_mac.h ****  * Copyright (c) 2015, Infineon Technologies AG
  11:D:\Naukowe\BLDC_workspace\PWM_from_ex\Libraries\XMCLib\inc\xmc_eth_mac.h ****  * All rights reserved.                        
  12:D:\Naukowe\BLDC_workspace\PWM_from_ex\Libraries\XMCLib\inc\xmc_eth_mac.h ****  *                                             
  13:D:\Naukowe\BLDC_workspace\PWM_from_ex\Libraries\XMCLib\inc\xmc_eth_mac.h ****  * Redistribution and use in source and binary forms, with or without modification,are permitted pr
  14:D:\Naukowe\BLDC_workspace\PWM_from_ex\Libraries\XMCLib\inc\xmc_eth_mac.h ****  * following conditions are met:   
  15:D:\Naukowe\BLDC_workspace\PWM_from_ex\Libraries\XMCLib\inc\xmc_eth_mac.h ****  *                                                                              
  16:D:\Naukowe\BLDC_workspace\PWM_from_ex\Libraries\XMCLib\inc\xmc_eth_mac.h ****  * Redistributions of source code must retain the above copyright notice, this list of conditions a
  17:D:\Naukowe\BLDC_workspace\PWM_from_ex\Libraries\XMCLib\inc\xmc_eth_mac.h ****  * disclaimer.                        
  18:D:\Naukowe\BLDC_workspace\PWM_from_ex\Libraries\XMCLib\inc\xmc_eth_mac.h ****  * 
  19:D:\Naukowe\BLDC_workspace\PWM_from_ex\Libraries\XMCLib\inc\xmc_eth_mac.h ****  * Redistributions in binary form must reproduce the above copyright notice, this list of condition
  20:D:\Naukowe\BLDC_workspace\PWM_from_ex\Libraries\XMCLib\inc\xmc_eth_mac.h ****  * disclaimer in the documentation and/or other materials provided with the distribution.          
  21:D:\Naukowe\BLDC_workspace\PWM_from_ex\Libraries\XMCLib\inc\xmc_eth_mac.h ****  * 
  22:D:\Naukowe\BLDC_workspace\PWM_from_ex\Libraries\XMCLib\inc\xmc_eth_mac.h ****  * Neither the name of the copyright holders nor the names of its contributors may be used to endor
  23:D:\Naukowe\BLDC_workspace\PWM_from_ex\Libraries\XMCLib\inc\xmc_eth_mac.h ****  * products derived from this software without specific prior written permission.                  
  24:D:\Naukowe\BLDC_workspace\PWM_from_ex\Libraries\XMCLib\inc\xmc_eth_mac.h ****  *                                                                              
  25:D:\Naukowe\BLDC_workspace\PWM_from_ex\Libraries\XMCLib\inc\xmc_eth_mac.h ****  * THIS SOFTWARE IS PROVIDED BY THE COPYRIGHT HOLDERS AND CONTRIBUTORS "AS IS" AND ANY EXPRESS OR I
  26:D:\Naukowe\BLDC_workspace\PWM_from_ex\Libraries\XMCLib\inc\xmc_eth_mac.h ****  * INCLUDING, BUT NOT LIMITED TO, THE IMPLIED WARRANTIES OF MERCHANTABILITY AND FITNESS FOR A PARTI
  27:D:\Naukowe\BLDC_workspace\PWM_from_ex\Libraries\XMCLib\inc\xmc_eth_mac.h ****  * DISCLAIMED. IN NO EVENT SHALL THE COPYRIGHT HOLDER OR CONTRIBUTORS BE LIABLE  FOR ANY DIRECT, IN
  28:D:\Naukowe\BLDC_workspace\PWM_from_ex\Libraries\XMCLib\inc\xmc_eth_mac.h ****  * SPECIAL, EXEMPLARY, OR CONSEQUENTIAL DAMAGES (INCLUDING, BUT NOT LIMITED TO, PROCUREMENT OF SUBS
  29:D:\Naukowe\BLDC_workspace\PWM_from_ex\Libraries\XMCLib\inc\xmc_eth_mac.h ****  * SERVICES; LOSS OF USE, DATA, OR PROFITS; OR BUSINESS INTERRUPTION) HOWEVER CAUSED AND ON ANY THE
  30:D:\Naukowe\BLDC_workspace\PWM_from_ex\Libraries\XMCLib\inc\xmc_eth_mac.h ****  * WHETHER IN CONTRACT, STRICT LIABILITY,OR TORT (INCLUDING NEGLIGENCE OR OTHERWISE) ARISING IN ANY
  31:D:\Naukowe\BLDC_workspace\PWM_from_ex\Libraries\XMCLib\inc\xmc_eth_mac.h ****  * OF THIS SOFTWARE, EVEN IF ADVISED OF THE POSSIBILITY OF SUCH DAMAGE.                            
  32:D:\Naukowe\BLDC_workspace\PWM_from_ex\Libraries\XMCLib\inc\xmc_eth_mac.h ****  *                                                                              
  33:D:\Naukowe\BLDC_workspace\PWM_from_ex\Libraries\XMCLib\inc\xmc_eth_mac.h ****  * To improve the quality of the software, users are encouraged to share modifications, enhancement
  34:D:\Naukowe\BLDC_workspace\PWM_from_ex\Libraries\XMCLib\inc\xmc_eth_mac.h ****  * Infineon Technologies AG dave@infineon.com).                                                    
  35:D:\Naukowe\BLDC_workspace\PWM_from_ex\Libraries\XMCLib\inc\xmc_eth_mac.h ****  **************************************************************************************************
  36:D:\Naukowe\BLDC_workspace\PWM_from_ex\Libraries\XMCLib\inc\xmc_eth_mac.h ****  *
  37:D:\Naukowe\BLDC_workspace\PWM_from_ex\Libraries\XMCLib\inc\xmc_eth_mac.h ****  * Change History
  38:D:\Naukowe\BLDC_workspace\PWM_from_ex\Libraries\XMCLib\inc\xmc_eth_mac.h ****  * --------------
  39:D:\Naukowe\BLDC_workspace\PWM_from_ex\Libraries\XMCLib\inc\xmc_eth_mac.h ****  *
  40:D:\Naukowe\BLDC_workspace\PWM_from_ex\Libraries\XMCLib\inc\xmc_eth_mac.h ****  * 2015-06-20:
  41:D:\Naukowe\BLDC_workspace\PWM_from_ex\Libraries\XMCLib\inc\xmc_eth_mac.h ****  *     - Initial <br>
  42:D:\Naukowe\BLDC_workspace\PWM_from_ex\Libraries\XMCLib\inc\xmc_eth_mac.h ****  *
  43:D:\Naukowe\BLDC_workspace\PWM_from_ex\Libraries\XMCLib\inc\xmc_eth_mac.h ****  * @endcond
  44:D:\Naukowe\BLDC_workspace\PWM_from_ex\Libraries\XMCLib\inc\xmc_eth_mac.h ****  */
  45:D:\Naukowe\BLDC_workspace\PWM_from_ex\Libraries\XMCLib\inc\xmc_eth_mac.h **** 
  46:D:\Naukowe\BLDC_workspace\PWM_from_ex\Libraries\XMCLib\inc\xmc_eth_mac.h **** /**
  47:D:\Naukowe\BLDC_workspace\PWM_from_ex\Libraries\XMCLib\inc\xmc_eth_mac.h ****  * @addtogroup XMClib XMC Peripheral Library
  48:D:\Naukowe\BLDC_workspace\PWM_from_ex\Libraries\XMCLib\inc\xmc_eth_mac.h ****  * @{
  49:D:\Naukowe\BLDC_workspace\PWM_from_ex\Libraries\XMCLib\inc\xmc_eth_mac.h ****  */
  50:D:\Naukowe\BLDC_workspace\PWM_from_ex\Libraries\XMCLib\inc\xmc_eth_mac.h **** 
  51:D:\Naukowe\BLDC_workspace\PWM_from_ex\Libraries\XMCLib\inc\xmc_eth_mac.h **** /**
  52:D:\Naukowe\BLDC_workspace\PWM_from_ex\Libraries\XMCLib\inc\xmc_eth_mac.h ****  * @addtogroup ETH_MAC
  53:D:\Naukowe\BLDC_workspace\PWM_from_ex\Libraries\XMCLib\inc\xmc_eth_mac.h ****  * @brief Ethernet Low level driver for XMC4000 microcontroller family.
  54:D:\Naukowe\BLDC_workspace\PWM_from_ex\Libraries\XMCLib\inc\xmc_eth_mac.h ****  *
  55:D:\Naukowe\BLDC_workspace\PWM_from_ex\Libraries\XMCLib\inc\xmc_eth_mac.h ****  * The Ethernet MAC (ETH) is a major communication peripheral that supports 10/100
  56:D:\Naukowe\BLDC_workspace\PWM_from_ex\Libraries\XMCLib\inc\xmc_eth_mac.h ****  * MBit/s data transfer rates in compliance with the IEEE 802.3-2002 standard. The ETH
  57:D:\Naukowe\BLDC_workspace\PWM_from_ex\Libraries\XMCLib\inc\xmc_eth_mac.h ****  * may be used to implement internet connected applications using IPv4 and IPv6. The
  58:D:\Naukowe\BLDC_workspace\PWM_from_ex\Libraries\XMCLib\inc\xmc_eth_mac.h ****  * ETH also includes support for IEEE1588 time synchronisation to allow implementation
  59:D:\Naukowe\BLDC_workspace\PWM_from_ex\Libraries\XMCLib\inc\xmc_eth_mac.h ****  * of Real Time Ethernet protocols.
  60:D:\Naukowe\BLDC_workspace\PWM_from_ex\Libraries\XMCLib\inc\xmc_eth_mac.h ****  *
  61:D:\Naukowe\BLDC_workspace\PWM_from_ex\Libraries\XMCLib\inc\xmc_eth_mac.h ****  * The XMC_ETH_MAC low level driver provides functions to configure and initialize
  62:D:\Naukowe\BLDC_workspace\PWM_from_ex\Libraries\XMCLib\inc\xmc_eth_mac.h ****  * the ETH_MAC hardware peripheral.
  63:D:\Naukowe\BLDC_workspace\PWM_from_ex\Libraries\XMCLib\inc\xmc_eth_mac.h ****  * @{
  64:D:\Naukowe\BLDC_workspace\PWM_from_ex\Libraries\XMCLib\inc\xmc_eth_mac.h ****  */
  65:D:\Naukowe\BLDC_workspace\PWM_from_ex\Libraries\XMCLib\inc\xmc_eth_mac.h **** 
  66:D:\Naukowe\BLDC_workspace\PWM_from_ex\Libraries\XMCLib\inc\xmc_eth_mac.h **** #ifndef XMC_ETH_MAC_H
  67:D:\Naukowe\BLDC_workspace\PWM_from_ex\Libraries\XMCLib\inc\xmc_eth_mac.h **** #define XMC_ETH_MAC_H
  68:D:\Naukowe\BLDC_workspace\PWM_from_ex\Libraries\XMCLib\inc\xmc_eth_mac.h **** 
  69:D:\Naukowe\BLDC_workspace\PWM_from_ex\Libraries\XMCLib\inc\xmc_eth_mac.h **** /**************************************************************************************************
  70:D:\Naukowe\BLDC_workspace\PWM_from_ex\Libraries\XMCLib\inc\xmc_eth_mac.h ****  * HEADER FILES
  71:D:\Naukowe\BLDC_workspace\PWM_from_ex\Libraries\XMCLib\inc\xmc_eth_mac.h ****  **************************************************************************************************
  72:D:\Naukowe\BLDC_workspace\PWM_from_ex\Libraries\XMCLib\inc\xmc_eth_mac.h **** 
  73:D:\Naukowe\BLDC_workspace\PWM_from_ex\Libraries\XMCLib\inc\xmc_eth_mac.h **** #include "xmc_common.h"
  74:D:\Naukowe\BLDC_workspace\PWM_from_ex\Libraries\XMCLib\inc\xmc_eth_mac.h **** 
  75:D:\Naukowe\BLDC_workspace\PWM_from_ex\Libraries\XMCLib\inc\xmc_eth_mac.h **** #if defined (ETH0)
  76:D:\Naukowe\BLDC_workspace\PWM_from_ex\Libraries\XMCLib\inc\xmc_eth_mac.h **** 
  77:D:\Naukowe\BLDC_workspace\PWM_from_ex\Libraries\XMCLib\inc\xmc_eth_mac.h **** #include "xmc_eth_mac_map.h"
  78:D:\Naukowe\BLDC_workspace\PWM_from_ex\Libraries\XMCLib\inc\xmc_eth_mac.h **** 
  79:D:\Naukowe\BLDC_workspace\PWM_from_ex\Libraries\XMCLib\inc\xmc_eth_mac.h **** /**************************************************************************************************
  80:D:\Naukowe\BLDC_workspace\PWM_from_ex\Libraries\XMCLib\inc\xmc_eth_mac.h ****  * MACROS
  81:D:\Naukowe\BLDC_workspace\PWM_from_ex\Libraries\XMCLib\inc\xmc_eth_mac.h ****  **************************************************************************************************
  82:D:\Naukowe\BLDC_workspace\PWM_from_ex\Libraries\XMCLib\inc\xmc_eth_mac.h **** 
  83:D:\Naukowe\BLDC_workspace\PWM_from_ex\Libraries\XMCLib\inc\xmc_eth_mac.h **** #define XMC_ETH_MAC_BUF_SIZE           (1518)     /**< ETH MAC buffer size */
  84:D:\Naukowe\BLDC_workspace\PWM_from_ex\Libraries\XMCLib\inc\xmc_eth_mac.h **** #define XMC_ETH_MAC_PHY_MAX_RETRIES    (0xffffUL) /**< Maximum retries */
  85:D:\Naukowe\BLDC_workspace\PWM_from_ex\Libraries\XMCLib\inc\xmc_eth_mac.h **** #define XMC_ETH_WAKEUP_REGISTER_LENGTH (8U)       /**< Remote wakeup frame reg length */
  86:D:\Naukowe\BLDC_workspace\PWM_from_ex\Libraries\XMCLib\inc\xmc_eth_mac.h **** 
  87:D:\Naukowe\BLDC_workspace\PWM_from_ex\Libraries\XMCLib\inc\xmc_eth_mac.h **** /**************************************************************************************************
  88:D:\Naukowe\BLDC_workspace\PWM_from_ex\Libraries\XMCLib\inc\xmc_eth_mac.h ****  * ENUMS
  89:D:\Naukowe\BLDC_workspace\PWM_from_ex\Libraries\XMCLib\inc\xmc_eth_mac.h ****  **************************************************************************************************
  90:D:\Naukowe\BLDC_workspace\PWM_from_ex\Libraries\XMCLib\inc\xmc_eth_mac.h **** 
  91:D:\Naukowe\BLDC_workspace\PWM_from_ex\Libraries\XMCLib\inc\xmc_eth_mac.h **** /**
  92:D:\Naukowe\BLDC_workspace\PWM_from_ex\Libraries\XMCLib\inc\xmc_eth_mac.h ****  * Ethernet MAC status return values
  93:D:\Naukowe\BLDC_workspace\PWM_from_ex\Libraries\XMCLib\inc\xmc_eth_mac.h ****  */
  94:D:\Naukowe\BLDC_workspace\PWM_from_ex\Libraries\XMCLib\inc\xmc_eth_mac.h **** typedef enum XMC_ETH_MAC_STATUS
  95:D:\Naukowe\BLDC_workspace\PWM_from_ex\Libraries\XMCLib\inc\xmc_eth_mac.h **** {
  96:D:\Naukowe\BLDC_workspace\PWM_from_ex\Libraries\XMCLib\inc\xmc_eth_mac.h ****   XMC_ETH_MAC_STATUS_OK    = 0U, /**< Driver accepted application request */
  97:D:\Naukowe\BLDC_workspace\PWM_from_ex\Libraries\XMCLib\inc\xmc_eth_mac.h ****   XMC_ETH_MAC_STATUS_BUSY  = 1U, /**< Driver is busy and cannot handle request */
  98:D:\Naukowe\BLDC_workspace\PWM_from_ex\Libraries\XMCLib\inc\xmc_eth_mac.h ****   XMC_ETH_MAC_STATUS_ERROR = 2U  /**< Driver could not fulfil application request */
  99:D:\Naukowe\BLDC_workspace\PWM_from_ex\Libraries\XMCLib\inc\xmc_eth_mac.h **** } XMC_ETH_MAC_STATUS_t;
 100:D:\Naukowe\BLDC_workspace\PWM_from_ex\Libraries\XMCLib\inc\xmc_eth_mac.h **** 
 101:D:\Naukowe\BLDC_workspace\PWM_from_ex\Libraries\XMCLib\inc\xmc_eth_mac.h **** /**
 102:D:\Naukowe\BLDC_workspace\PWM_from_ex\Libraries\XMCLib\inc\xmc_eth_mac.h ****  * Transmission frame
 103:D:\Naukowe\BLDC_workspace\PWM_from_ex\Libraries\XMCLib\inc\xmc_eth_mac.h ****  */
 104:D:\Naukowe\BLDC_workspace\PWM_from_ex\Libraries\XMCLib\inc\xmc_eth_mac.h **** typedef enum XMC_ETH_MAC_TX_FRAME
 105:D:\Naukowe\BLDC_workspace\PWM_from_ex\Libraries\XMCLib\inc\xmc_eth_mac.h **** {
 106:D:\Naukowe\BLDC_workspace\PWM_from_ex\Libraries\XMCLib\inc\xmc_eth_mac.h ****   XMC_ETH_MAC_TX_FRAME_FRAGMENT  = 0x1U, /**< Indicate frame fragment */
 107:D:\Naukowe\BLDC_workspace\PWM_from_ex\Libraries\XMCLib\inc\xmc_eth_mac.h ****   XMC_ETH_MAC_TX_FRAME_EVENT     = 0x2U, /**< Generate event when frame is transmitted */
 108:D:\Naukowe\BLDC_workspace\PWM_from_ex\Libraries\XMCLib\inc\xmc_eth_mac.h ****   XMC_ETH_MAC_TX_FRAME_TIMESTAMP = 0x4U  /**< Capture frame time stamp */
 109:D:\Naukowe\BLDC_workspace\PWM_from_ex\Libraries\XMCLib\inc\xmc_eth_mac.h **** } XMC_ETH_MAC_TX_FRAME_t;
 110:D:\Naukowe\BLDC_workspace\PWM_from_ex\Libraries\XMCLib\inc\xmc_eth_mac.h **** 
 111:D:\Naukowe\BLDC_workspace\PWM_from_ex\Libraries\XMCLib\inc\xmc_eth_mac.h **** /**
 112:D:\Naukowe\BLDC_workspace\PWM_from_ex\Libraries\XMCLib\inc\xmc_eth_mac.h ****  * ETH MAC event
 113:D:\Naukowe\BLDC_workspace\PWM_from_ex\Libraries\XMCLib\inc\xmc_eth_mac.h ****  */
 114:D:\Naukowe\BLDC_workspace\PWM_from_ex\Libraries\XMCLib\inc\xmc_eth_mac.h **** typedef enum XMC_ETH_MAC_EVENT
 115:D:\Naukowe\BLDC_workspace\PWM_from_ex\Libraries\XMCLib\inc\xmc_eth_mac.h **** {
 116:D:\Naukowe\BLDC_workspace\PWM_from_ex\Libraries\XMCLib\inc\xmc_eth_mac.h ****   XMC_ETH_MAC_EVENT_PMT = ETH_INTERRUPT_MASK_PMTIM_Msk << 16,        /**< Power management event */
 117:D:\Naukowe\BLDC_workspace\PWM_from_ex\Libraries\XMCLib\inc\xmc_eth_mac.h ****   XMC_ETH_MAC_EVENT_TIMESTAMP = ETH_INTERRUPT_MASK_TSIM_Msk << 16,   /**< Time stamp event */
 118:D:\Naukowe\BLDC_workspace\PWM_from_ex\Libraries\XMCLib\inc\xmc_eth_mac.h ****   XMC_ETH_MAC_EVENT_EARLY_RECEIVE = ETH_STATUS_ERI_Msk,              /**< Early receive */
 119:D:\Naukowe\BLDC_workspace\PWM_from_ex\Libraries\XMCLib\inc\xmc_eth_mac.h ****   XMC_ETH_MAC_EVENT_BUS_ERROR = ETH_STATUS_FBI_Msk,                  /**< Bus error */
 120:D:\Naukowe\BLDC_workspace\PWM_from_ex\Libraries\XMCLib\inc\xmc_eth_mac.h ****   XMC_ETH_MAC_EVENT_EARLY_TRANSMIT = ETH_STATUS_ETI_Msk,             /**< Early transmit */
 121:D:\Naukowe\BLDC_workspace\PWM_from_ex\Libraries\XMCLib\inc\xmc_eth_mac.h ****   XMC_ETH_MAC_EVENT_RECEIVE_WATCHDOG_TIMEOUT = ETH_STATUS_RWT_Msk,   /**< Receive watchdog time-out
 122:D:\Naukowe\BLDC_workspace\PWM_from_ex\Libraries\XMCLib\inc\xmc_eth_mac.h ****   XMC_ETH_MAC_EVENT_RECEIVE_PROCESS_STOPPED = ETH_STATUS_RPS_Msk,    /**< Receive process stopped *
 123:D:\Naukowe\BLDC_workspace\PWM_from_ex\Libraries\XMCLib\inc\xmc_eth_mac.h ****   XMC_ETH_MAC_EVENT_RECEIVE_BUFFER_UNAVAILABLE = ETH_STATUS_RU_Msk,  /**< Receive buffer unavailabl
 124:D:\Naukowe\BLDC_workspace\PWM_from_ex\Libraries\XMCLib\inc\xmc_eth_mac.h ****   XMC_ETH_MAC_EVENT_RECEIVE = ETH_STATUS_RI_Msk,                     /**< Receive event */
 125:D:\Naukowe\BLDC_workspace\PWM_from_ex\Libraries\XMCLib\inc\xmc_eth_mac.h ****   XMC_ETH_MAC_EVENT_TRANSMIT_UNDERFLOW = ETH_STATUS_UNF_Msk,         /**< Transmit underflow */
 126:D:\Naukowe\BLDC_workspace\PWM_from_ex\Libraries\XMCLib\inc\xmc_eth_mac.h ****   XMC_ETH_MAC_EVENT_RECEIVE_OVERFLOW = ETH_STATUS_OVF_Msk,           /**< Receive overflow */
 127:D:\Naukowe\BLDC_workspace\PWM_from_ex\Libraries\XMCLib\inc\xmc_eth_mac.h ****   XMC_ETH_MAC_EVENT_TRANSMIT_JABBER_TIMEOUT = ETH_STATUS_TJT_Msk,    /**< Transmit jabber time-out 
 128:D:\Naukowe\BLDC_workspace\PWM_from_ex\Libraries\XMCLib\inc\xmc_eth_mac.h ****   XMC_ETH_MAC_EVENT_TRANSMIT_BUFFER_UNAVAILABLE = ETH_STATUS_TU_Msk, /**< Transmit buffer unavailab
 129:D:\Naukowe\BLDC_workspace\PWM_from_ex\Libraries\XMCLib\inc\xmc_eth_mac.h ****   XMC_ETH_MAC_EVENT_TRANSMIT_PROCESS_STOPPED = ETH_STATUS_TPS_Msk,   /**< Transmit process stopped 
 130:D:\Naukowe\BLDC_workspace\PWM_from_ex\Libraries\XMCLib\inc\xmc_eth_mac.h ****   XMC_ETH_MAC_EVENT_TRANSMIT = ETH_STATUS_TI_Msk                     /**< Transmit event */
 131:D:\Naukowe\BLDC_workspace\PWM_from_ex\Libraries\XMCLib\inc\xmc_eth_mac.h **** } XMC_ETH_MAC_EVENT_t;
 132:D:\Naukowe\BLDC_workspace\PWM_from_ex\Libraries\XMCLib\inc\xmc_eth_mac.h **** 
 133:D:\Naukowe\BLDC_workspace\PWM_from_ex\Libraries\XMCLib\inc\xmc_eth_mac.h **** /**
 134:D:\Naukowe\BLDC_workspace\PWM_from_ex\Libraries\XMCLib\inc\xmc_eth_mac.h ****  * Link interface
 135:D:\Naukowe\BLDC_workspace\PWM_from_ex\Libraries\XMCLib\inc\xmc_eth_mac.h ****  */
 136:D:\Naukowe\BLDC_workspace\PWM_from_ex\Libraries\XMCLib\inc\xmc_eth_mac.h **** typedef enum XMC_ETH_LINK_INTERFACE
 137:D:\Naukowe\BLDC_workspace\PWM_from_ex\Libraries\XMCLib\inc\xmc_eth_mac.h **** {
 138:D:\Naukowe\BLDC_workspace\PWM_from_ex\Libraries\XMCLib\inc\xmc_eth_mac.h ****   XMC_ETH_LINK_INTERFACE_MII, /**< Link interface: Media independent interface */
 139:D:\Naukowe\BLDC_workspace\PWM_from_ex\Libraries\XMCLib\inc\xmc_eth_mac.h ****   XMC_ETH_LINK_INTERFACE_RMII /**< Link interface: Reduced media independent interface */
 140:D:\Naukowe\BLDC_workspace\PWM_from_ex\Libraries\XMCLib\inc\xmc_eth_mac.h **** } XMC_ETH_LINK_INTERFACE_t;
 141:D:\Naukowe\BLDC_workspace\PWM_from_ex\Libraries\XMCLib\inc\xmc_eth_mac.h **** 
 142:D:\Naukowe\BLDC_workspace\PWM_from_ex\Libraries\XMCLib\inc\xmc_eth_mac.h **** /**
 143:D:\Naukowe\BLDC_workspace\PWM_from_ex\Libraries\XMCLib\inc\xmc_eth_mac.h ****  * ETH link status
 144:D:\Naukowe\BLDC_workspace\PWM_from_ex\Libraries\XMCLib\inc\xmc_eth_mac.h ****  */
 145:D:\Naukowe\BLDC_workspace\PWM_from_ex\Libraries\XMCLib\inc\xmc_eth_mac.h **** typedef enum XMC_ETH_LINK_STATUS
 146:D:\Naukowe\BLDC_workspace\PWM_from_ex\Libraries\XMCLib\inc\xmc_eth_mac.h **** {
 147:D:\Naukowe\BLDC_workspace\PWM_from_ex\Libraries\XMCLib\inc\xmc_eth_mac.h ****   XMC_ETH_LINK_STATUS_DOWN, /**< Link status down */
 148:D:\Naukowe\BLDC_workspace\PWM_from_ex\Libraries\XMCLib\inc\xmc_eth_mac.h ****   XMC_ETH_LINK_STATUS_UP    /**< Link status up */
 149:D:\Naukowe\BLDC_workspace\PWM_from_ex\Libraries\XMCLib\inc\xmc_eth_mac.h **** } XMC_ETH_LINK_STATUS_t;
 150:D:\Naukowe\BLDC_workspace\PWM_from_ex\Libraries\XMCLib\inc\xmc_eth_mac.h **** 
 151:D:\Naukowe\BLDC_workspace\PWM_from_ex\Libraries\XMCLib\inc\xmc_eth_mac.h **** /**
 152:D:\Naukowe\BLDC_workspace\PWM_from_ex\Libraries\XMCLib\inc\xmc_eth_mac.h ****  * ETH link speed
 153:D:\Naukowe\BLDC_workspace\PWM_from_ex\Libraries\XMCLib\inc\xmc_eth_mac.h ****  */
 154:D:\Naukowe\BLDC_workspace\PWM_from_ex\Libraries\XMCLib\inc\xmc_eth_mac.h **** typedef enum XMC_ETH_LINK_SPEED
 155:D:\Naukowe\BLDC_workspace\PWM_from_ex\Libraries\XMCLib\inc\xmc_eth_mac.h **** {
 156:D:\Naukowe\BLDC_workspace\PWM_from_ex\Libraries\XMCLib\inc\xmc_eth_mac.h ****   XMC_ETH_LINK_SPEED_10M  = 0UL << ETH_MAC_CONFIGURATION_FES_Pos, /**< Link speed: 10M */
 157:D:\Naukowe\BLDC_workspace\PWM_from_ex\Libraries\XMCLib\inc\xmc_eth_mac.h ****   XMC_ETH_LINK_SPEED_100M = 1UL << ETH_MAC_CONFIGURATION_FES_Pos  /**< Link speed: 100M */
 158:D:\Naukowe\BLDC_workspace\PWM_from_ex\Libraries\XMCLib\inc\xmc_eth_mac.h **** } XMC_ETH_LINK_SPEED_t;
 159:D:\Naukowe\BLDC_workspace\PWM_from_ex\Libraries\XMCLib\inc\xmc_eth_mac.h **** 
 160:D:\Naukowe\BLDC_workspace\PWM_from_ex\Libraries\XMCLib\inc\xmc_eth_mac.h **** /**
 161:D:\Naukowe\BLDC_workspace\PWM_from_ex\Libraries\XMCLib\inc\xmc_eth_mac.h ****  * ETH duplex settings (full/half?)
 162:D:\Naukowe\BLDC_workspace\PWM_from_ex\Libraries\XMCLib\inc\xmc_eth_mac.h ****  */
 163:D:\Naukowe\BLDC_workspace\PWM_from_ex\Libraries\XMCLib\inc\xmc_eth_mac.h **** typedef enum XMC_ETH_LINK_DUPLEX
 164:D:\Naukowe\BLDC_workspace\PWM_from_ex\Libraries\XMCLib\inc\xmc_eth_mac.h **** {
 165:D:\Naukowe\BLDC_workspace\PWM_from_ex\Libraries\XMCLib\inc\xmc_eth_mac.h ****   XMC_ETH_LINK_DUPLEX_HALF = 0UL << ETH_MAC_CONFIGURATION_DM_Pos, /**< Half duplex */
 166:D:\Naukowe\BLDC_workspace\PWM_from_ex\Libraries\XMCLib\inc\xmc_eth_mac.h ****   XMC_ETH_LINK_DUPLEX_FULL = 1UL << ETH_MAC_CONFIGURATION_DM_Pos  /**< Full duplex */
 167:D:\Naukowe\BLDC_workspace\PWM_from_ex\Libraries\XMCLib\inc\xmc_eth_mac.h **** } XMC_ETH_LINK_DUPLEX_t;
 168:D:\Naukowe\BLDC_workspace\PWM_from_ex\Libraries\XMCLib\inc\xmc_eth_mac.h **** 
 169:D:\Naukowe\BLDC_workspace\PWM_from_ex\Libraries\XMCLib\inc\xmc_eth_mac.h **** /**
 170:D:\Naukowe\BLDC_workspace\PWM_from_ex\Libraries\XMCLib\inc\xmc_eth_mac.h ****  * MAC address filter
 171:D:\Naukowe\BLDC_workspace\PWM_from_ex\Libraries\XMCLib\inc\xmc_eth_mac.h ****  */
 172:D:\Naukowe\BLDC_workspace\PWM_from_ex\Libraries\XMCLib\inc\xmc_eth_mac.h **** typedef enum XMC_ETH_MAC_ADDR_FILTER
 173:D:\Naukowe\BLDC_workspace\PWM_from_ex\Libraries\XMCLib\inc\xmc_eth_mac.h **** {
 174:D:\Naukowe\BLDC_workspace\PWM_from_ex\Libraries\XMCLib\inc\xmc_eth_mac.h ****   XMC_ETH_MAC_ADDR_FILTER_MASK_BYTE0 = 0x01000000UL, /**< Address filter mask: byte 0 */
 175:D:\Naukowe\BLDC_workspace\PWM_from_ex\Libraries\XMCLib\inc\xmc_eth_mac.h ****   XMC_ETH_MAC_ADDR_FILTER_MASK_BYTE1 = 0x02000000UL, /**< Address filter mask: byte 1 */
 176:D:\Naukowe\BLDC_workspace\PWM_from_ex\Libraries\XMCLib\inc\xmc_eth_mac.h ****   XMC_ETH_MAC_ADDR_FILTER_MASK_BYTE2 = 0x04000000UL, /**< Address filter mask: byte 2 */
 177:D:\Naukowe\BLDC_workspace\PWM_from_ex\Libraries\XMCLib\inc\xmc_eth_mac.h ****   XMC_ETH_MAC_ADDR_FILTER_MASK_BYTE3 = 0x08000000UL, /**< Address filter mask: byte 3 */
 178:D:\Naukowe\BLDC_workspace\PWM_from_ex\Libraries\XMCLib\inc\xmc_eth_mac.h ****   XMC_ETH_MAC_ADDR_FILTER_MASK_BYTE4 = 0x10000000UL, /**< Address filter mask: byte 4 */
 179:D:\Naukowe\BLDC_workspace\PWM_from_ex\Libraries\XMCLib\inc\xmc_eth_mac.h ****   XMC_ETH_MAC_ADDR_FILTER_MASK_BYTE5 = 0x20000000UL, /**< Address filter mask: byte 5 */
 180:D:\Naukowe\BLDC_workspace\PWM_from_ex\Libraries\XMCLib\inc\xmc_eth_mac.h ****   XMC_ETH_MAC_ADDR_FILTER_SA         = 0x40000000UL  /**< Address filter SA */
 181:D:\Naukowe\BLDC_workspace\PWM_from_ex\Libraries\XMCLib\inc\xmc_eth_mac.h **** } XMC_ETH_MAC_ADDR_FILTER_t;
 182:D:\Naukowe\BLDC_workspace\PWM_from_ex\Libraries\XMCLib\inc\xmc_eth_mac.h **** 
 183:D:\Naukowe\BLDC_workspace\PWM_from_ex\Libraries\XMCLib\inc\xmc_eth_mac.h **** /**
 184:D:\Naukowe\BLDC_workspace\PWM_from_ex\Libraries\XMCLib\inc\xmc_eth_mac.h ****  * Power management events that triggers a PMT interrupt
 185:D:\Naukowe\BLDC_workspace\PWM_from_ex\Libraries\XMCLib\inc\xmc_eth_mac.h ****  */
 186:D:\Naukowe\BLDC_workspace\PWM_from_ex\Libraries\XMCLib\inc\xmc_eth_mac.h **** typedef enum XMC_ETH_MAC_PMT_EVENT
 187:D:\Naukowe\BLDC_workspace\PWM_from_ex\Libraries\XMCLib\inc\xmc_eth_mac.h **** {
 188:D:\Naukowe\BLDC_workspace\PWM_from_ex\Libraries\XMCLib\inc\xmc_eth_mac.h ****   XMC_ETH_MAC_PMT_EVENT_ON_WAKEUP_FRAME         = ETH_PMT_CONTROL_STATUS_RWKPKTEN_Msk,  /**< Wakeup
 189:D:\Naukowe\BLDC_workspace\PWM_from_ex\Libraries\XMCLib\inc\xmc_eth_mac.h ****   XMC_ETH_MAC_PMT_EVENT_ON_MAGIC_PACKET         = ETH_PMT_CONTROL_STATUS_MGKPKTEN_Msk,  /**< Magic 
 190:D:\Naukowe\BLDC_workspace\PWM_from_ex\Libraries\XMCLib\inc\xmc_eth_mac.h ****   XMC_ETH_MAC_PMT_EVENT_ON_UNICAST_FRAME_FILTER = ETH_PMT_CONTROL_STATUS_GLBLUCAST_Msk  /**< Unicas
 191:D:\Naukowe\BLDC_workspace\PWM_from_ex\Libraries\XMCLib\inc\xmc_eth_mac.h **** } XMC_ETH_MAC_PMT_EVENT_t;
 192:D:\Naukowe\BLDC_workspace\PWM_from_ex\Libraries\XMCLib\inc\xmc_eth_mac.h **** 
 193:D:\Naukowe\BLDC_workspace\PWM_from_ex\Libraries\XMCLib\inc\xmc_eth_mac.h **** 
 194:D:\Naukowe\BLDC_workspace\PWM_from_ex\Libraries\XMCLib\inc\xmc_eth_mac.h **** /**
 195:D:\Naukowe\BLDC_workspace\PWM_from_ex\Libraries\XMCLib\inc\xmc_eth_mac.h ****  * ETH MAC time-stamp configuration enable
 196:D:\Naukowe\BLDC_workspace\PWM_from_ex\Libraries\XMCLib\inc\xmc_eth_mac.h ****  */
 197:D:\Naukowe\BLDC_workspace\PWM_from_ex\Libraries\XMCLib\inc\xmc_eth_mac.h **** typedef enum XMC_ETH_MAC_TIMESTAMP_CONFIG
 198:D:\Naukowe\BLDC_workspace\PWM_from_ex\Libraries\XMCLib\inc\xmc_eth_mac.h **** {
 199:D:\Naukowe\BLDC_workspace\PWM_from_ex\Libraries\XMCLib\inc\xmc_eth_mac.h ****   XMC_ETH_MAC_TIMESTAMP_CONFIG_FINE_UPDATE = ETH_TIMESTAMP_CONTROL_TSCFUPDT_Msk,             /**< F
 200:D:\Naukowe\BLDC_workspace\PWM_from_ex\Libraries\XMCLib\inc\xmc_eth_mac.h ****   XMC_ETH_MAC_TIMESTAMP_CONFIG_ENABLE_ALL_FRAMES = ETH_TIMESTAMP_CONTROL_TSENALL_Msk,        /**< E
 201:D:\Naukowe\BLDC_workspace\PWM_from_ex\Libraries\XMCLib\inc\xmc_eth_mac.h ****   XMC_ETH_MAC_TIMESTAMP_CONFIG_ENABLE_PTPV2 = ETH_TIMESTAMP_CONTROL_TSVER2ENA_Msk,           /**< P
 202:D:\Naukowe\BLDC_workspace\PWM_from_ex\Libraries\XMCLib\inc\xmc_eth_mac.h ****   XMC_ETH_MAC_TIMESTAMP_CONFIG_ENABLE_PTP_OVER_ETHERNET = ETH_TIMESTAMP_CONTROL_TSIPENA_Msk, /**< P
 203:D:\Naukowe\BLDC_workspace\PWM_from_ex\Libraries\XMCLib\inc\xmc_eth_mac.h ****   XMC_ETH_MAC_TIMESTAMP_CONFIG_ENABLE_PTP_OVER_IPV6 = ETH_TIMESTAMP_CONTROL_TSIPV6ENA_Msk,   /**< P
 204:D:\Naukowe\BLDC_workspace\PWM_from_ex\Libraries\XMCLib\inc\xmc_eth_mac.h ****   XMC_ETH_MAC_TIMESTAMP_CONFIG_ENABLE_PTP_OVER_IPV4 = ETH_TIMESTAMP_CONTROL_TSIPV4ENA_Msk,   /**< P
 205:D:\Naukowe\BLDC_workspace\PWM_from_ex\Libraries\XMCLib\inc\xmc_eth_mac.h ****   XMC_ETH_MAC_TIMESTAMP_CONFIG_ENABLE_MAC_ADDRESS_FILTER = ETH_TIMESTAMP_CONTROL_TSENMACADDR_Msk /*
 206:D:\Naukowe\BLDC_workspace\PWM_from_ex\Libraries\XMCLib\inc\xmc_eth_mac.h **** } XMC_ETH_MAC_TIMESTAMP_CONFIG_t;
 207:D:\Naukowe\BLDC_workspace\PWM_from_ex\Libraries\XMCLib\inc\xmc_eth_mac.h **** 
 208:D:\Naukowe\BLDC_workspace\PWM_from_ex\Libraries\XMCLib\inc\xmc_eth_mac.h **** /**************************************************************************************************
 209:D:\Naukowe\BLDC_workspace\PWM_from_ex\Libraries\XMCLib\inc\xmc_eth_mac.h ****  * DATA STRUCTURES
 210:D:\Naukowe\BLDC_workspace\PWM_from_ex\Libraries\XMCLib\inc\xmc_eth_mac.h ****  **************************************************************************************************
 211:D:\Naukowe\BLDC_workspace\PWM_from_ex\Libraries\XMCLib\inc\xmc_eth_mac.h **** 
 212:D:\Naukowe\BLDC_workspace\PWM_from_ex\Libraries\XMCLib\inc\xmc_eth_mac.h **** /* Anonymous structure/union guard start */
 213:D:\Naukowe\BLDC_workspace\PWM_from_ex\Libraries\XMCLib\inc\xmc_eth_mac.h **** #if defined (__CC_ARM)
 214:D:\Naukowe\BLDC_workspace\PWM_from_ex\Libraries\XMCLib\inc\xmc_eth_mac.h **** #pragma push
 215:D:\Naukowe\BLDC_workspace\PWM_from_ex\Libraries\XMCLib\inc\xmc_eth_mac.h **** #pragma anon_unions
 216:D:\Naukowe\BLDC_workspace\PWM_from_ex\Libraries\XMCLib\inc\xmc_eth_mac.h **** #elif defined (__TASKING__)
 217:D:\Naukowe\BLDC_workspace\PWM_from_ex\Libraries\XMCLib\inc\xmc_eth_mac.h **** #pragma warning 586
 218:D:\Naukowe\BLDC_workspace\PWM_from_ex\Libraries\XMCLib\inc\xmc_eth_mac.h **** #endif
 219:D:\Naukowe\BLDC_workspace\PWM_from_ex\Libraries\XMCLib\inc\xmc_eth_mac.h **** 
 220:D:\Naukowe\BLDC_workspace\PWM_from_ex\Libraries\XMCLib\inc\xmc_eth_mac.h **** /**
 221:D:\Naukowe\BLDC_workspace\PWM_from_ex\Libraries\XMCLib\inc\xmc_eth_mac.h ****  * ETH MAC port control
 222:D:\Naukowe\BLDC_workspace\PWM_from_ex\Libraries\XMCLib\inc\xmc_eth_mac.h ****  */
 223:D:\Naukowe\BLDC_workspace\PWM_from_ex\Libraries\XMCLib\inc\xmc_eth_mac.h **** typedef union XMC_ETH_MAC_PORT_CTRL
 224:D:\Naukowe\BLDC_workspace\PWM_from_ex\Libraries\XMCLib\inc\xmc_eth_mac.h **** {
 225:D:\Naukowe\BLDC_workspace\PWM_from_ex\Libraries\XMCLib\inc\xmc_eth_mac.h ****   struct
 226:D:\Naukowe\BLDC_workspace\PWM_from_ex\Libraries\XMCLib\inc\xmc_eth_mac.h ****   {
 227:D:\Naukowe\BLDC_workspace\PWM_from_ex\Libraries\XMCLib\inc\xmc_eth_mac.h ****     uint32_t rxd0: 2;     /**< Receive data bit 0 (::XMC_ETH_MAC_PORT_CTRL_RXD0_t) */
 228:D:\Naukowe\BLDC_workspace\PWM_from_ex\Libraries\XMCLib\inc\xmc_eth_mac.h ****     uint32_t rxd1: 2;     /**< Receive data bit 1 (::XMC_ETH_MAC_PORT_CTRL_RXD1_t) */
 229:D:\Naukowe\BLDC_workspace\PWM_from_ex\Libraries\XMCLib\inc\xmc_eth_mac.h ****     uint32_t rxd2: 2;     /**< Receive data bit 2 (only MII) (::XMC_ETH_MAC_PORT_CTRL_RXD2_t) */
 230:D:\Naukowe\BLDC_workspace\PWM_from_ex\Libraries\XMCLib\inc\xmc_eth_mac.h ****     uint32_t rxd3: 2;     /**< Receive data bit 3 (only MII) (::XMC_ETH_MAC_PORT_CTRL_RXD3_t) */
 231:D:\Naukowe\BLDC_workspace\PWM_from_ex\Libraries\XMCLib\inc\xmc_eth_mac.h ****     uint32_t clk_rmii: 2; /**< RMII: Continuous 50 MHz reference clock.
 232:D:\Naukowe\BLDC_workspace\PWM_from_ex\Libraries\XMCLib\inc\xmc_eth_mac.h ****                                MII: Receive clock, 25 MHz for 100Mbit/s, 2.5 MHz for 10Mbit/s
 233:D:\Naukowe\BLDC_workspace\PWM_from_ex\Libraries\XMCLib\inc\xmc_eth_mac.h ****                                (::XMC_ETH_MAC_PORT_CTRL_CLK_RMII_t) */
 234:D:\Naukowe\BLDC_workspace\PWM_from_ex\Libraries\XMCLib\inc\xmc_eth_mac.h ****     uint32_t crs_dv: 2;   /**< RMII: carrier sense/RX_Data valid. MII: RX_Data valid (::XMC_ETH_MAC
 235:D:\Naukowe\BLDC_workspace\PWM_from_ex\Libraries\XMCLib\inc\xmc_eth_mac.h ****     uint32_t crs: 2;      /**< Carrier sense for only MII (::XMC_ETH_MAC_PORT_CTRL_CRS_t) */
 236:D:\Naukowe\BLDC_workspace\PWM_from_ex\Libraries\XMCLib\inc\xmc_eth_mac.h ****     uint32_t rxer: 2;     /**< Receive error (::XMC_ETH_MAC_PORT_CTRL_RXER_t) */
 237:D:\Naukowe\BLDC_workspace\PWM_from_ex\Libraries\XMCLib\inc\xmc_eth_mac.h ****     uint32_t col: 2;      /**< Collision Detect for only MII (::XMC_ETH_MAC_PORT_CTRL_COL_t) */
 238:D:\Naukowe\BLDC_workspace\PWM_from_ex\Libraries\XMCLib\inc\xmc_eth_mac.h ****     uint32_t clk_tx: 2;   /**< Transmit clock (only MII), 25 MHz for 100Mbit/s, 2.5 MHz for 10Mbit/
 239:D:\Naukowe\BLDC_workspace\PWM_from_ex\Libraries\XMCLib\inc\xmc_eth_mac.h ****     uint32_t: 2;          /**< Reserved bits */
 240:D:\Naukowe\BLDC_workspace\PWM_from_ex\Libraries\XMCLib\inc\xmc_eth_mac.h ****     uint32_t mdio: 2;     /**< Bidirectional, push-pull management data I/O line (::XMC_ETH_MAC_POR
 241:D:\Naukowe\BLDC_workspace\PWM_from_ex\Libraries\XMCLib\inc\xmc_eth_mac.h ****     uint32_t: 2;          /**< Reserved bits */
 242:D:\Naukowe\BLDC_workspace\PWM_from_ex\Libraries\XMCLib\inc\xmc_eth_mac.h ****     uint32_t mode: 1;     /**< RMII or MII (::XMC_ETH_MAC_PORT_CTRL_MODE_t) */
 243:D:\Naukowe\BLDC_workspace\PWM_from_ex\Libraries\XMCLib\inc\xmc_eth_mac.h ****   };
 244:D:\Naukowe\BLDC_workspace\PWM_from_ex\Libraries\XMCLib\inc\xmc_eth_mac.h **** 
 245:D:\Naukowe\BLDC_workspace\PWM_from_ex\Libraries\XMCLib\inc\xmc_eth_mac.h ****   uint32_t raw;
 246:D:\Naukowe\BLDC_workspace\PWM_from_ex\Libraries\XMCLib\inc\xmc_eth_mac.h **** } XMC_ETH_MAC_PORT_CTRL_t;
 247:D:\Naukowe\BLDC_workspace\PWM_from_ex\Libraries\XMCLib\inc\xmc_eth_mac.h **** 
 248:D:\Naukowe\BLDC_workspace\PWM_from_ex\Libraries\XMCLib\inc\xmc_eth_mac.h **** /**
 249:D:\Naukowe\BLDC_workspace\PWM_from_ex\Libraries\XMCLib\inc\xmc_eth_mac.h ****  * ETH MAC DMA descriptor
 250:D:\Naukowe\BLDC_workspace\PWM_from_ex\Libraries\XMCLib\inc\xmc_eth_mac.h ****  */
 251:D:\Naukowe\BLDC_workspace\PWM_from_ex\Libraries\XMCLib\inc\xmc_eth_mac.h **** typedef struct XMC_ETH_MAC_DMA_DESC
 252:D:\Naukowe\BLDC_workspace\PWM_from_ex\Libraries\XMCLib\inc\xmc_eth_mac.h **** {
 253:D:\Naukowe\BLDC_workspace\PWM_from_ex\Libraries\XMCLib\inc\xmc_eth_mac.h ****   uint32_t status;                 /**< DMA descriptor status */
 254:D:\Naukowe\BLDC_workspace\PWM_from_ex\Libraries\XMCLib\inc\xmc_eth_mac.h ****   uint32_t length;                 /**< Descriptor length */
 255:D:\Naukowe\BLDC_workspace\PWM_from_ex\Libraries\XMCLib\inc\xmc_eth_mac.h ****   uint32_t buffer1;                /**< Buffer 1 */
 256:D:\Naukowe\BLDC_workspace\PWM_from_ex\Libraries\XMCLib\inc\xmc_eth_mac.h ****   uint32_t buffer2;                /**< Buffer 2 */
 257:D:\Naukowe\BLDC_workspace\PWM_from_ex\Libraries\XMCLib\inc\xmc_eth_mac.h ****   uint32_t extended_status;        /**< Extended status */
 258:D:\Naukowe\BLDC_workspace\PWM_from_ex\Libraries\XMCLib\inc\xmc_eth_mac.h ****   uint32_t reserved;               /**< Reserved */
 259:D:\Naukowe\BLDC_workspace\PWM_from_ex\Libraries\XMCLib\inc\xmc_eth_mac.h ****   uint32_t time_stamp_seconds;     /**< Time stamp low */
 260:D:\Naukowe\BLDC_workspace\PWM_from_ex\Libraries\XMCLib\inc\xmc_eth_mac.h ****   uint32_t time_stamp_nanoseconds; /**< Time stamp high */
 261:D:\Naukowe\BLDC_workspace\PWM_from_ex\Libraries\XMCLib\inc\xmc_eth_mac.h **** } XMC_ETH_MAC_DMA_DESC_t;
 262:D:\Naukowe\BLDC_workspace\PWM_from_ex\Libraries\XMCLib\inc\xmc_eth_mac.h **** 
 263:D:\Naukowe\BLDC_workspace\PWM_from_ex\Libraries\XMCLib\inc\xmc_eth_mac.h **** /**
 264:D:\Naukowe\BLDC_workspace\PWM_from_ex\Libraries\XMCLib\inc\xmc_eth_mac.h ****  * ETH MAC time
 265:D:\Naukowe\BLDC_workspace\PWM_from_ex\Libraries\XMCLib\inc\xmc_eth_mac.h ****  */
 266:D:\Naukowe\BLDC_workspace\PWM_from_ex\Libraries\XMCLib\inc\xmc_eth_mac.h **** typedef struct XMC_ETH_MAC_TIME
 267:D:\Naukowe\BLDC_workspace\PWM_from_ex\Libraries\XMCLib\inc\xmc_eth_mac.h **** {
 268:D:\Naukowe\BLDC_workspace\PWM_from_ex\Libraries\XMCLib\inc\xmc_eth_mac.h ****   int32_t nanoseconds;
 269:D:\Naukowe\BLDC_workspace\PWM_from_ex\Libraries\XMCLib\inc\xmc_eth_mac.h ****   uint32_t seconds;
 270:D:\Naukowe\BLDC_workspace\PWM_from_ex\Libraries\XMCLib\inc\xmc_eth_mac.h **** } XMC_ETH_MAC_TIME_t;
 271:D:\Naukowe\BLDC_workspace\PWM_from_ex\Libraries\XMCLib\inc\xmc_eth_mac.h **** 
 272:D:\Naukowe\BLDC_workspace\PWM_from_ex\Libraries\XMCLib\inc\xmc_eth_mac.h **** /**
 273:D:\Naukowe\BLDC_workspace\PWM_from_ex\Libraries\XMCLib\inc\xmc_eth_mac.h ****  * ETH driver structure
 274:D:\Naukowe\BLDC_workspace\PWM_from_ex\Libraries\XMCLib\inc\xmc_eth_mac.h ****  */
 275:D:\Naukowe\BLDC_workspace\PWM_from_ex\Libraries\XMCLib\inc\xmc_eth_mac.h **** typedef struct XMC_ETH_MAC
 276:D:\Naukowe\BLDC_workspace\PWM_from_ex\Libraries\XMCLib\inc\xmc_eth_mac.h **** {
 277:D:\Naukowe\BLDC_workspace\PWM_from_ex\Libraries\XMCLib\inc\xmc_eth_mac.h ****   ETH_GLOBAL_TypeDef *regs;        /**< ETH module 0 (now, we have a single ETH module) */
 278:D:\Naukowe\BLDC_workspace\PWM_from_ex\Libraries\XMCLib\inc\xmc_eth_mac.h ****   uint64_t address;              /**< MAC address */
 279:D:\Naukowe\BLDC_workspace\PWM_from_ex\Libraries\XMCLib\inc\xmc_eth_mac.h ****   XMC_ETH_MAC_DMA_DESC_t *rx_desc; /**< DMA descriptor: RX */
 280:D:\Naukowe\BLDC_workspace\PWM_from_ex\Libraries\XMCLib\inc\xmc_eth_mac.h ****   XMC_ETH_MAC_DMA_DESC_t *tx_desc; /**< DMA descriptor: TX */
 281:D:\Naukowe\BLDC_workspace\PWM_from_ex\Libraries\XMCLib\inc\xmc_eth_mac.h ****   uint8_t *rx_buf;                /**< RX buffer */
 282:D:\Naukowe\BLDC_workspace\PWM_from_ex\Libraries\XMCLib\inc\xmc_eth_mac.h ****   uint8_t *tx_buf;                /**< TX buffer */
 283:D:\Naukowe\BLDC_workspace\PWM_from_ex\Libraries\XMCLib\inc\xmc_eth_mac.h ****   uint8_t *frame_end;              /**< End of assembled frame fragments */
 284:D:\Naukowe\BLDC_workspace\PWM_from_ex\Libraries\XMCLib\inc\xmc_eth_mac.h ****   uint8_t num_rx_buf;              /**< How many RX descriptors? */
 285:D:\Naukowe\BLDC_workspace\PWM_from_ex\Libraries\XMCLib\inc\xmc_eth_mac.h ****   uint8_t num_tx_buf;              /**< How many TX descriptors? */
 286:D:\Naukowe\BLDC_workspace\PWM_from_ex\Libraries\XMCLib\inc\xmc_eth_mac.h ****   uint8_t tx_index;                /**< Transmit descriptor index */
 287:D:\Naukowe\BLDC_workspace\PWM_from_ex\Libraries\XMCLib\inc\xmc_eth_mac.h ****   uint8_t rx_index;                /**< Receive descriptor index */
 288:D:\Naukowe\BLDC_workspace\PWM_from_ex\Libraries\XMCLib\inc\xmc_eth_mac.h ****   uint8_t tx_ts_index;             /**< Transmit time-stamp descriptor index */
 289:D:\Naukowe\BLDC_workspace\PWM_from_ex\Libraries\XMCLib\inc\xmc_eth_mac.h **** } XMC_ETH_MAC_t;
 290:D:\Naukowe\BLDC_workspace\PWM_from_ex\Libraries\XMCLib\inc\xmc_eth_mac.h **** 
 291:D:\Naukowe\BLDC_workspace\PWM_from_ex\Libraries\XMCLib\inc\xmc_eth_mac.h **** /* Anonymous structure/union guard end */
 292:D:\Naukowe\BLDC_workspace\PWM_from_ex\Libraries\XMCLib\inc\xmc_eth_mac.h **** #if defined (__CC_ARM)
 293:D:\Naukowe\BLDC_workspace\PWM_from_ex\Libraries\XMCLib\inc\xmc_eth_mac.h **** #pragma pop
 294:D:\Naukowe\BLDC_workspace\PWM_from_ex\Libraries\XMCLib\inc\xmc_eth_mac.h **** #elif defined (__TASKING__)
 295:D:\Naukowe\BLDC_workspace\PWM_from_ex\Libraries\XMCLib\inc\xmc_eth_mac.h **** #pragma warning restore
 296:D:\Naukowe\BLDC_workspace\PWM_from_ex\Libraries\XMCLib\inc\xmc_eth_mac.h **** #endif
 297:D:\Naukowe\BLDC_workspace\PWM_from_ex\Libraries\XMCLib\inc\xmc_eth_mac.h **** 
 298:D:\Naukowe\BLDC_workspace\PWM_from_ex\Libraries\XMCLib\inc\xmc_eth_mac.h **** /**************************************************************************************************
 299:D:\Naukowe\BLDC_workspace\PWM_from_ex\Libraries\XMCLib\inc\xmc_eth_mac.h ****  * API PROTOTYPES
 300:D:\Naukowe\BLDC_workspace\PWM_from_ex\Libraries\XMCLib\inc\xmc_eth_mac.h ****  **************************************************************************************************
 301:D:\Naukowe\BLDC_workspace\PWM_from_ex\Libraries\XMCLib\inc\xmc_eth_mac.h **** 
 302:D:\Naukowe\BLDC_workspace\PWM_from_ex\Libraries\XMCLib\inc\xmc_eth_mac.h **** #ifdef __cplusplus
 303:D:\Naukowe\BLDC_workspace\PWM_from_ex\Libraries\XMCLib\inc\xmc_eth_mac.h **** extern "C" {
 304:D:\Naukowe\BLDC_workspace\PWM_from_ex\Libraries\XMCLib\inc\xmc_eth_mac.h **** #endif
 305:D:\Naukowe\BLDC_workspace\PWM_from_ex\Libraries\XMCLib\inc\xmc_eth_mac.h **** 
 306:D:\Naukowe\BLDC_workspace\PWM_from_ex\Libraries\XMCLib\inc\xmc_eth_mac.h **** /**
 307:D:\Naukowe\BLDC_workspace\PWM_from_ex\Libraries\XMCLib\inc\xmc_eth_mac.h ****  * @param eth_mac A constant pointer to XMC_ETH_MAC_t, pointing to the ETH MAC base address
 308:D:\Naukowe\BLDC_workspace\PWM_from_ex\Libraries\XMCLib\inc\xmc_eth_mac.h ****  * @return XMC_ETH_MAC_STATUS_t Initialization status
 309:D:\Naukowe\BLDC_workspace\PWM_from_ex\Libraries\XMCLib\inc\xmc_eth_mac.h ****  *
 310:D:\Naukowe\BLDC_workspace\PWM_from_ex\Libraries\XMCLib\inc\xmc_eth_mac.h ****  * \par<b>Description: </b><br>
 311:D:\Naukowe\BLDC_workspace\PWM_from_ex\Libraries\XMCLib\inc\xmc_eth_mac.h ****  * Initialize the Ethernet MAC peripheral <br>
 312:D:\Naukowe\BLDC_workspace\PWM_from_ex\Libraries\XMCLib\inc\xmc_eth_mac.h ****  *
 313:D:\Naukowe\BLDC_workspace\PWM_from_ex\Libraries\XMCLib\inc\xmc_eth_mac.h ****  * \par
 314:D:\Naukowe\BLDC_workspace\PWM_from_ex\Libraries\XMCLib\inc\xmc_eth_mac.h ****  * The function sets the link speed, applies the duplex mode, sets auto-negotiation
 315:D:\Naukowe\BLDC_workspace\PWM_from_ex\Libraries\XMCLib\inc\xmc_eth_mac.h ****  * and loop-back settings.
 316:D:\Naukowe\BLDC_workspace\PWM_from_ex\Libraries\XMCLib\inc\xmc_eth_mac.h ****  */
 317:D:\Naukowe\BLDC_workspace\PWM_from_ex\Libraries\XMCLib\inc\xmc_eth_mac.h **** XMC_ETH_MAC_STATUS_t XMC_ETH_MAC_Init(XMC_ETH_MAC_t *const eth_mac);
 318:D:\Naukowe\BLDC_workspace\PWM_from_ex\Libraries\XMCLib\inc\xmc_eth_mac.h **** 
 319:D:\Naukowe\BLDC_workspace\PWM_from_ex\Libraries\XMCLib\inc\xmc_eth_mac.h **** /**
 320:D:\Naukowe\BLDC_workspace\PWM_from_ex\Libraries\XMCLib\inc\xmc_eth_mac.h ****  * @param eth_mac A constant pointer to XMC_ETH_MAC_t, pointing to the ETH MAC base address
 321:D:\Naukowe\BLDC_workspace\PWM_from_ex\Libraries\XMCLib\inc\xmc_eth_mac.h ****  * @return None
 322:D:\Naukowe\BLDC_workspace\PWM_from_ex\Libraries\XMCLib\inc\xmc_eth_mac.h ****  *
 323:D:\Naukowe\BLDC_workspace\PWM_from_ex\Libraries\XMCLib\inc\xmc_eth_mac.h ****  * \par<b>Description: </b><br>
 324:D:\Naukowe\BLDC_workspace\PWM_from_ex\Libraries\XMCLib\inc\xmc_eth_mac.h ****  * Initialize the RX DMA descriptors <br>
 325:D:\Naukowe\BLDC_workspace\PWM_from_ex\Libraries\XMCLib\inc\xmc_eth_mac.h ****  *
 326:D:\Naukowe\BLDC_workspace\PWM_from_ex\Libraries\XMCLib\inc\xmc_eth_mac.h ****  * \par
 327:D:\Naukowe\BLDC_workspace\PWM_from_ex\Libraries\XMCLib\inc\xmc_eth_mac.h ****  * The function initializes the RX descriptors in a chained configuration. It sets
 328:D:\Naukowe\BLDC_workspace\PWM_from_ex\Libraries\XMCLib\inc\xmc_eth_mac.h ****  * up the status bit, control bit, buffer length and the buffer pointer.
 329:D:\Naukowe\BLDC_workspace\PWM_from_ex\Libraries\XMCLib\inc\xmc_eth_mac.h ****  */
 330:D:\Naukowe\BLDC_workspace\PWM_from_ex\Libraries\XMCLib\inc\xmc_eth_mac.h **** void XMC_ETH_MAC_InitRxDescriptors(XMC_ETH_MAC_t *const eth_mac);
 331:D:\Naukowe\BLDC_workspace\PWM_from_ex\Libraries\XMCLib\inc\xmc_eth_mac.h **** 
 332:D:\Naukowe\BLDC_workspace\PWM_from_ex\Libraries\XMCLib\inc\xmc_eth_mac.h **** /**
 333:D:\Naukowe\BLDC_workspace\PWM_from_ex\Libraries\XMCLib\inc\xmc_eth_mac.h ****  * @param eth_mac A constant pointer to XMC_ETH_MAC_t, pointing to the ETH MAC base address
 334:D:\Naukowe\BLDC_workspace\PWM_from_ex\Libraries\XMCLib\inc\xmc_eth_mac.h ****  * @return None
 335:D:\Naukowe\BLDC_workspace\PWM_from_ex\Libraries\XMCLib\inc\xmc_eth_mac.h ****  *
 336:D:\Naukowe\BLDC_workspace\PWM_from_ex\Libraries\XMCLib\inc\xmc_eth_mac.h ****  * \par<b>Description: </b><br>
 337:D:\Naukowe\BLDC_workspace\PWM_from_ex\Libraries\XMCLib\inc\xmc_eth_mac.h ****  * Initialize the TX DMA descriptors <br>
 338:D:\Naukowe\BLDC_workspace\PWM_from_ex\Libraries\XMCLib\inc\xmc_eth_mac.h ****  *
 339:D:\Naukowe\BLDC_workspace\PWM_from_ex\Libraries\XMCLib\inc\xmc_eth_mac.h ****  * \par
 340:D:\Naukowe\BLDC_workspace\PWM_from_ex\Libraries\XMCLib\inc\xmc_eth_mac.h ****  * The function initializes the TX descriptors in a chained configuration. It sets
 341:D:\Naukowe\BLDC_workspace\PWM_from_ex\Libraries\XMCLib\inc\xmc_eth_mac.h ****  * up the status bit, control bit, buffer length and the buffer pointer.
 342:D:\Naukowe\BLDC_workspace\PWM_from_ex\Libraries\XMCLib\inc\xmc_eth_mac.h ****  */
 343:D:\Naukowe\BLDC_workspace\PWM_from_ex\Libraries\XMCLib\inc\xmc_eth_mac.h **** void XMC_ETH_MAC_InitTxDescriptors(XMC_ETH_MAC_t *const eth_mac);
 344:D:\Naukowe\BLDC_workspace\PWM_from_ex\Libraries\XMCLib\inc\xmc_eth_mac.h ****  
 345:D:\Naukowe\BLDC_workspace\PWM_from_ex\Libraries\XMCLib\inc\xmc_eth_mac.h **** /**
 346:D:\Naukowe\BLDC_workspace\PWM_from_ex\Libraries\XMCLib\inc\xmc_eth_mac.h ****  * @param eth_mac A constant pointer to XMC_ETH_MAC_t, pointing to the ETH MAC base address
 347:D:\Naukowe\BLDC_workspace\PWM_from_ex\Libraries\XMCLib\inc\xmc_eth_mac.h ****  * @return None
 348:D:\Naukowe\BLDC_workspace\PWM_from_ex\Libraries\XMCLib\inc\xmc_eth_mac.h ****  *
 349:D:\Naukowe\BLDC_workspace\PWM_from_ex\Libraries\XMCLib\inc\xmc_eth_mac.h ****  * \par<b>Description: </b><br>
 350:D:\Naukowe\BLDC_workspace\PWM_from_ex\Libraries\XMCLib\inc\xmc_eth_mac.h ****  * Enable the Ethernet MAC peripheral <br>
 351:D:\Naukowe\BLDC_workspace\PWM_from_ex\Libraries\XMCLib\inc\xmc_eth_mac.h ****  *
 352:D:\Naukowe\BLDC_workspace\PWM_from_ex\Libraries\XMCLib\inc\xmc_eth_mac.h ****  * \par
 353:D:\Naukowe\BLDC_workspace\PWM_from_ex\Libraries\XMCLib\inc\xmc_eth_mac.h ****  * The function de-asserts the peripheral reset.
 354:D:\Naukowe\BLDC_workspace\PWM_from_ex\Libraries\XMCLib\inc\xmc_eth_mac.h ****  */
 355:D:\Naukowe\BLDC_workspace\PWM_from_ex\Libraries\XMCLib\inc\xmc_eth_mac.h **** void XMC_ETH_MAC_Enable(XMC_ETH_MAC_t *const eth_mac);
 356:D:\Naukowe\BLDC_workspace\PWM_from_ex\Libraries\XMCLib\inc\xmc_eth_mac.h **** 
 357:D:\Naukowe\BLDC_workspace\PWM_from_ex\Libraries\XMCLib\inc\xmc_eth_mac.h **** /**
 358:D:\Naukowe\BLDC_workspace\PWM_from_ex\Libraries\XMCLib\inc\xmc_eth_mac.h ****  * @param eth_mac A constant pointer to XMC_ETH_MAC_t, pointing to the ETH MAC base address
 359:D:\Naukowe\BLDC_workspace\PWM_from_ex\Libraries\XMCLib\inc\xmc_eth_mac.h ****  * @return None
 360:D:\Naukowe\BLDC_workspace\PWM_from_ex\Libraries\XMCLib\inc\xmc_eth_mac.h ****  *
 361:D:\Naukowe\BLDC_workspace\PWM_from_ex\Libraries\XMCLib\inc\xmc_eth_mac.h ****  * \par<b>Description: </b><br>
 362:D:\Naukowe\BLDC_workspace\PWM_from_ex\Libraries\XMCLib\inc\xmc_eth_mac.h ****  * Disable the Ethernet MAC peripheral <br>
 363:D:\Naukowe\BLDC_workspace\PWM_from_ex\Libraries\XMCLib\inc\xmc_eth_mac.h ****  *
 364:D:\Naukowe\BLDC_workspace\PWM_from_ex\Libraries\XMCLib\inc\xmc_eth_mac.h ****  * \par
 365:D:\Naukowe\BLDC_workspace\PWM_from_ex\Libraries\XMCLib\inc\xmc_eth_mac.h ****  * The function asserts the peripheral reset.
 366:D:\Naukowe\BLDC_workspace\PWM_from_ex\Libraries\XMCLib\inc\xmc_eth_mac.h ****  */
 367:D:\Naukowe\BLDC_workspace\PWM_from_ex\Libraries\XMCLib\inc\xmc_eth_mac.h **** void XMC_ETH_MAC_Disable(XMC_ETH_MAC_t *const eth_mac);
 368:D:\Naukowe\BLDC_workspace\PWM_from_ex\Libraries\XMCLib\inc\xmc_eth_mac.h **** 
 369:D:\Naukowe\BLDC_workspace\PWM_from_ex\Libraries\XMCLib\inc\xmc_eth_mac.h **** /**
 370:D:\Naukowe\BLDC_workspace\PWM_from_ex\Libraries\XMCLib\inc\xmc_eth_mac.h ****  * @param eth_mac A constant pointer to XMC_ETH_MAC_t, pointing to the ETH MAC base address
 371:D:\Naukowe\BLDC_workspace\PWM_from_ex\Libraries\XMCLib\inc\xmc_eth_mac.h ****  * @return bool
 372:D:\Naukowe\BLDC_workspace\PWM_from_ex\Libraries\XMCLib\inc\xmc_eth_mac.h ****  *
 373:D:\Naukowe\BLDC_workspace\PWM_from_ex\Libraries\XMCLib\inc\xmc_eth_mac.h ****  * \par<b>Description: </b><br>
 374:D:\Naukowe\BLDC_workspace\PWM_from_ex\Libraries\XMCLib\inc\xmc_eth_mac.h ****  * Check if the ETH MAC is enabled <br>
 375:D:\Naukowe\BLDC_workspace\PWM_from_ex\Libraries\XMCLib\inc\xmc_eth_mac.h ****  *
 376:D:\Naukowe\BLDC_workspace\PWM_from_ex\Libraries\XMCLib\inc\xmc_eth_mac.h ****  * \par
 377:D:\Naukowe\BLDC_workspace\PWM_from_ex\Libraries\XMCLib\inc\xmc_eth_mac.h ****  * The function checks if the ETH MAC is enabled or not. It returns "true" if the
 378:D:\Naukowe\BLDC_workspace\PWM_from_ex\Libraries\XMCLib\inc\xmc_eth_mac.h ****  * peripheral is enabled, "false" otherwise.
 379:D:\Naukowe\BLDC_workspace\PWM_from_ex\Libraries\XMCLib\inc\xmc_eth_mac.h ****  */
 380:D:\Naukowe\BLDC_workspace\PWM_from_ex\Libraries\XMCLib\inc\xmc_eth_mac.h **** bool XMC_ETH_MAC_IsEnabled(const XMC_ETH_MAC_t *const eth_mac);
 381:D:\Naukowe\BLDC_workspace\PWM_from_ex\Libraries\XMCLib\inc\xmc_eth_mac.h **** 
 382:D:\Naukowe\BLDC_workspace\PWM_from_ex\Libraries\XMCLib\inc\xmc_eth_mac.h **** /**
 383:D:\Naukowe\BLDC_workspace\PWM_from_ex\Libraries\XMCLib\inc\xmc_eth_mac.h ****  * @param eth_mac A constant pointer to XMC_ETH_MAC_t, pointing to the ETH MAC base address
 384:D:\Naukowe\BLDC_workspace\PWM_from_ex\Libraries\XMCLib\inc\xmc_eth_mac.h ****  * @return None
 385:D:\Naukowe\BLDC_workspace\PWM_from_ex\Libraries\XMCLib\inc\xmc_eth_mac.h ****  *
 386:D:\Naukowe\BLDC_workspace\PWM_from_ex\Libraries\XMCLib\inc\xmc_eth_mac.h ****  * \par<b>Description: </b><br>
 387:D:\Naukowe\BLDC_workspace\PWM_from_ex\Libraries\XMCLib\inc\xmc_eth_mac.h ****  * Reset the ETH MAC peripheral <br>
 388:D:\Naukowe\BLDC_workspace\PWM_from_ex\Libraries\XMCLib\inc\xmc_eth_mac.h ****  *
 389:D:\Naukowe\BLDC_workspace\PWM_from_ex\Libraries\XMCLib\inc\xmc_eth_mac.h ****  * \par
 390:D:\Naukowe\BLDC_workspace\PWM_from_ex\Libraries\XMCLib\inc\xmc_eth_mac.h ****  * The function resets the ETH MAC peripheral. It blocks until reset.
 391:D:\Naukowe\BLDC_workspace\PWM_from_ex\Libraries\XMCLib\inc\xmc_eth_mac.h ****  */
 392:D:\Naukowe\BLDC_workspace\PWM_from_ex\Libraries\XMCLib\inc\xmc_eth_mac.h **** __STATIC_INLINE void XMC_ETH_MAC_Reset(XMC_ETH_MAC_t *const eth_mac)
 393:D:\Naukowe\BLDC_workspace\PWM_from_ex\Libraries\XMCLib\inc\xmc_eth_mac.h **** {
  27              	 .loc 1 393 0
  28              	 .cfi_startproc
  29              	 
  30              	 
  31              	 
  32 0000 80B4     	 push {r7}
  33              	.LCFI0:
  34              	 .cfi_def_cfa_offset 4
  35              	 .cfi_offset 7,-4
  36 0002 83B0     	 sub sp,sp,#12
  37              	.LCFI1:
  38              	 .cfi_def_cfa_offset 16
  39 0004 00AF     	 add r7,sp,#0
  40              	.LCFI2:
  41              	 .cfi_def_cfa_register 7
  42 0006 7860     	 str r0,[r7,#4]
 394:D:\Naukowe\BLDC_workspace\PWM_from_ex\Libraries\XMCLib\inc\xmc_eth_mac.h ****   eth_mac->regs->BUS_MODE |= (uint32_t)ETH_BUS_MODE_SWR_Msk;
  43              	 .loc 1 394 0
  44 0008 7B68     	 ldr r3,[r7,#4]
  45 000a 1B68     	 ldr r3,[r3]
  46 000c 7A68     	 ldr r2,[r7,#4]
  47 000e 1268     	 ldr r2,[r2]
  48 0010 02F58052 	 add r2,r2,#4096
  49 0014 1268     	 ldr r2,[r2]
  50 0016 42F00102 	 orr r2,r2,#1
  51 001a 03F58053 	 add r3,r3,#4096
  52 001e 1A60     	 str r2,[r3]
 395:D:\Naukowe\BLDC_workspace\PWM_from_ex\Libraries\XMCLib\inc\xmc_eth_mac.h ****   while ((eth_mac->regs->BUS_MODE & (uint32_t)ETH_BUS_MODE_SWR_Msk) != 0U)
  53              	 .loc 1 395 0
  54 0020 00BF     	 nop
  55              	.L2:
  56              	 .loc 1 395 0 is_stmt 0 discriminator 1
  57 0022 7B68     	 ldr r3,[r7,#4]
  58 0024 1B68     	 ldr r3,[r3]
  59 0026 03F58053 	 add r3,r3,#4096
  60 002a 1B68     	 ldr r3,[r3]
  61 002c 03F00103 	 and r3,r3,#1
  62 0030 002B     	 cmp r3,#0
  63 0032 F6D1     	 bne .L2
 396:D:\Naukowe\BLDC_workspace\PWM_from_ex\Libraries\XMCLib\inc\xmc_eth_mac.h ****   {
 397:D:\Naukowe\BLDC_workspace\PWM_from_ex\Libraries\XMCLib\inc\xmc_eth_mac.h ****   }
 398:D:\Naukowe\BLDC_workspace\PWM_from_ex\Libraries\XMCLib\inc\xmc_eth_mac.h **** }
  64              	 .loc 1 398 0 is_stmt 1
  65 0034 0C37     	 adds r7,r7,#12
  66              	.LCFI3:
  67              	 .cfi_def_cfa_offset 4
  68 0036 BD46     	 mov sp,r7
  69              	.LCFI4:
  70              	 .cfi_def_cfa_register 13
  71              	 
  72 0038 5DF8047B 	 ldr r7,[sp],#4
  73              	.LCFI5:
  74              	 .cfi_restore 7
  75              	 .cfi_def_cfa_offset 0
  76 003c 7047     	 bx lr
  77              	 .cfi_endproc
  78              	.LFE128:
  80 003e 00BF     	 .section .text.XMC_ETH_MAC_SetAddress,"ax",%progbits
  81              	 .align 2
  82              	 .thumb
  83              	 .thumb_func
  85              	XMC_ETH_MAC_SetAddress:
  86              	.LFB130:
 399:D:\Naukowe\BLDC_workspace\PWM_from_ex\Libraries\XMCLib\inc\xmc_eth_mac.h **** 
 400:D:\Naukowe\BLDC_workspace\PWM_from_ex\Libraries\XMCLib\inc\xmc_eth_mac.h **** /**
 401:D:\Naukowe\BLDC_workspace\PWM_from_ex\Libraries\XMCLib\inc\xmc_eth_mac.h ****  * @param eth_mac A constant pointer to XMC_ETH_MAC_t, pointing to the ETH MAC base address
 402:D:\Naukowe\BLDC_workspace\PWM_from_ex\Libraries\XMCLib\inc\xmc_eth_mac.h ****  * @param phy_addr PHY address
 403:D:\Naukowe\BLDC_workspace\PWM_from_ex\Libraries\XMCLib\inc\xmc_eth_mac.h ****  * @param reg_addr Register address
 404:D:\Naukowe\BLDC_workspace\PWM_from_ex\Libraries\XMCLib\inc\xmc_eth_mac.h ****  * @param data The destination to which the read data needs to be copied to
 405:D:\Naukowe\BLDC_workspace\PWM_from_ex\Libraries\XMCLib\inc\xmc_eth_mac.h ****  * @return XMC_ETH_MAC_STATUS_t ETH MAC status
 406:D:\Naukowe\BLDC_workspace\PWM_from_ex\Libraries\XMCLib\inc\xmc_eth_mac.h ****  *
 407:D:\Naukowe\BLDC_workspace\PWM_from_ex\Libraries\XMCLib\inc\xmc_eth_mac.h ****  * \par<b>Description: </b><br>
 408:D:\Naukowe\BLDC_workspace\PWM_from_ex\Libraries\XMCLib\inc\xmc_eth_mac.h ****  * Read a PHY register <br>
 409:D:\Naukowe\BLDC_workspace\PWM_from_ex\Libraries\XMCLib\inc\xmc_eth_mac.h ****  *
 410:D:\Naukowe\BLDC_workspace\PWM_from_ex\Libraries\XMCLib\inc\xmc_eth_mac.h ****  * \par
 411:D:\Naukowe\BLDC_workspace\PWM_from_ex\Libraries\XMCLib\inc\xmc_eth_mac.h ****  * The function reads a PHY register. It essentially polls busy bit during max
 412:D:\Naukowe\BLDC_workspace\PWM_from_ex\Libraries\XMCLib\inc\xmc_eth_mac.h ****  * PHY_TIMEOUT time and reads the information into 'data' when not busy.
 413:D:\Naukowe\BLDC_workspace\PWM_from_ex\Libraries\XMCLib\inc\xmc_eth_mac.h ****  */
 414:D:\Naukowe\BLDC_workspace\PWM_from_ex\Libraries\XMCLib\inc\xmc_eth_mac.h **** XMC_ETH_MAC_STATUS_t XMC_ETH_MAC_ReadPhy(XMC_ETH_MAC_t *const eth_mac, uint8_t phy_addr, uint8_t re
 415:D:\Naukowe\BLDC_workspace\PWM_from_ex\Libraries\XMCLib\inc\xmc_eth_mac.h **** 
 416:D:\Naukowe\BLDC_workspace\PWM_from_ex\Libraries\XMCLib\inc\xmc_eth_mac.h **** /**
 417:D:\Naukowe\BLDC_workspace\PWM_from_ex\Libraries\XMCLib\inc\xmc_eth_mac.h ****  * @param eth_mac A constant pointer to XMC_ETH_MAC_t, pointing to the ETH MAC base address
 418:D:\Naukowe\BLDC_workspace\PWM_from_ex\Libraries\XMCLib\inc\xmc_eth_mac.h ****  * @param phy_addr PHY address
 419:D:\Naukowe\BLDC_workspace\PWM_from_ex\Libraries\XMCLib\inc\xmc_eth_mac.h ****  * @param reg_addr Register address
 420:D:\Naukowe\BLDC_workspace\PWM_from_ex\Libraries\XMCLib\inc\xmc_eth_mac.h ****  * @param data The data to write
 421:D:\Naukowe\BLDC_workspace\PWM_from_ex\Libraries\XMCLib\inc\xmc_eth_mac.h ****  * @return XMC_ETH_MAC_STATUS_t ETH MAC status
 422:D:\Naukowe\BLDC_workspace\PWM_from_ex\Libraries\XMCLib\inc\xmc_eth_mac.h ****  *
 423:D:\Naukowe\BLDC_workspace\PWM_from_ex\Libraries\XMCLib\inc\xmc_eth_mac.h ****  * \par<b>Description: </b><br>
 424:D:\Naukowe\BLDC_workspace\PWM_from_ex\Libraries\XMCLib\inc\xmc_eth_mac.h ****  * Write a PHY register <br>
 425:D:\Naukowe\BLDC_workspace\PWM_from_ex\Libraries\XMCLib\inc\xmc_eth_mac.h ****  *
 426:D:\Naukowe\BLDC_workspace\PWM_from_ex\Libraries\XMCLib\inc\xmc_eth_mac.h ****  * \par
 427:D:\Naukowe\BLDC_workspace\PWM_from_ex\Libraries\XMCLib\inc\xmc_eth_mac.h ****  * The function reads a PHY register. It essentially writes the data and polls
 428:D:\Naukowe\BLDC_workspace\PWM_from_ex\Libraries\XMCLib\inc\xmc_eth_mac.h ****  * the busy bit until it is no longer busy.
 429:D:\Naukowe\BLDC_workspace\PWM_from_ex\Libraries\XMCLib\inc\xmc_eth_mac.h ****  */
 430:D:\Naukowe\BLDC_workspace\PWM_from_ex\Libraries\XMCLib\inc\xmc_eth_mac.h **** XMC_ETH_MAC_STATUS_t XMC_ETH_MAC_WritePhy(XMC_ETH_MAC_t *const eth_mac, uint8_t phy_addr, uint8_t r
 431:D:\Naukowe\BLDC_workspace\PWM_from_ex\Libraries\XMCLib\inc\xmc_eth_mac.h **** 
 432:D:\Naukowe\BLDC_workspace\PWM_from_ex\Libraries\XMCLib\inc\xmc_eth_mac.h **** /**
 433:D:\Naukowe\BLDC_workspace\PWM_from_ex\Libraries\XMCLib\inc\xmc_eth_mac.h ****  * @param eth_mac A constant pointer to XMC_ETH_MAC_t, pointing to the ETH MAC base address
 434:D:\Naukowe\BLDC_workspace\PWM_from_ex\Libraries\XMCLib\inc\xmc_eth_mac.h ****  * @param port_ctrl Port control configuration
 435:D:\Naukowe\BLDC_workspace\PWM_from_ex\Libraries\XMCLib\inc\xmc_eth_mac.h ****  * @return None
 436:D:\Naukowe\BLDC_workspace\PWM_from_ex\Libraries\XMCLib\inc\xmc_eth_mac.h ****  *
 437:D:\Naukowe\BLDC_workspace\PWM_from_ex\Libraries\XMCLib\inc\xmc_eth_mac.h ****  * \par<b>Description: </b><br>
 438:D:\Naukowe\BLDC_workspace\PWM_from_ex\Libraries\XMCLib\inc\xmc_eth_mac.h ****  * Set port control configuration <br>
 439:D:\Naukowe\BLDC_workspace\PWM_from_ex\Libraries\XMCLib\inc\xmc_eth_mac.h ****  *
 440:D:\Naukowe\BLDC_workspace\PWM_from_ex\Libraries\XMCLib\inc\xmc_eth_mac.h ****  * \par
 441:D:\Naukowe\BLDC_workspace\PWM_from_ex\Libraries\XMCLib\inc\xmc_eth_mac.h ****  * The function sets the port control by writing the configuration into the
 442:D:\Naukowe\BLDC_workspace\PWM_from_ex\Libraries\XMCLib\inc\xmc_eth_mac.h ****  * CON register.
 443:D:\Naukowe\BLDC_workspace\PWM_from_ex\Libraries\XMCLib\inc\xmc_eth_mac.h ****  *
 444:D:\Naukowe\BLDC_workspace\PWM_from_ex\Libraries\XMCLib\inc\xmc_eth_mac.h ****  * \note
 445:D:\Naukowe\BLDC_workspace\PWM_from_ex\Libraries\XMCLib\inc\xmc_eth_mac.h ****  * MII Mode is only available in:
 446:D:\Naukowe\BLDC_workspace\PWM_from_ex\Libraries\XMCLib\inc\xmc_eth_mac.h ****  * - XMC4500 LQFP144 and BGA144 packages
 447:D:\Naukowe\BLDC_workspace\PWM_from_ex\Libraries\XMCLib\inc\xmc_eth_mac.h ****  * - XMC4700 LQFP144 and BGA196 packages
 448:D:\Naukowe\BLDC_workspace\PWM_from_ex\Libraries\XMCLib\inc\xmc_eth_mac.h ****  * - XMC4800 LQFP144 and BGA196 packages
 449:D:\Naukowe\BLDC_workspace\PWM_from_ex\Libraries\XMCLib\inc\xmc_eth_mac.h ****  *
 450:D:\Naukowe\BLDC_workspace\PWM_from_ex\Libraries\XMCLib\inc\xmc_eth_mac.h ****  */
 451:D:\Naukowe\BLDC_workspace\PWM_from_ex\Libraries\XMCLib\inc\xmc_eth_mac.h **** __STATIC_INLINE void XMC_ETH_MAC_SetPortControl(XMC_ETH_MAC_t *const eth_mac, const XMC_ETH_MAC_POR
 452:D:\Naukowe\BLDC_workspace\PWM_from_ex\Libraries\XMCLib\inc\xmc_eth_mac.h **** {
 453:D:\Naukowe\BLDC_workspace\PWM_from_ex\Libraries\XMCLib\inc\xmc_eth_mac.h ****   ETH0_CON->CON = (uint32_t)port_ctrl.raw;
 454:D:\Naukowe\BLDC_workspace\PWM_from_ex\Libraries\XMCLib\inc\xmc_eth_mac.h **** }
 455:D:\Naukowe\BLDC_workspace\PWM_from_ex\Libraries\XMCLib\inc\xmc_eth_mac.h **** 
 456:D:\Naukowe\BLDC_workspace\PWM_from_ex\Libraries\XMCLib\inc\xmc_eth_mac.h **** /**
 457:D:\Naukowe\BLDC_workspace\PWM_from_ex\Libraries\XMCLib\inc\xmc_eth_mac.h ****  * @param eth_mac A constant pointer to XMC_ETH_MAC_t, pointing to the ETH MAC base address
 458:D:\Naukowe\BLDC_workspace\PWM_from_ex\Libraries\XMCLib\inc\xmc_eth_mac.h ****  * @return XMC_ETH_MAC_STATUS_t ETH MAC status
 459:D:\Naukowe\BLDC_workspace\PWM_from_ex\Libraries\XMCLib\inc\xmc_eth_mac.h ****  *
 460:D:\Naukowe\BLDC_workspace\PWM_from_ex\Libraries\XMCLib\inc\xmc_eth_mac.h ****  * \par<b>Description: </b><br>
 461:D:\Naukowe\BLDC_workspace\PWM_from_ex\Libraries\XMCLib\inc\xmc_eth_mac.h ****  * Set management clock divider <br>
 462:D:\Naukowe\BLDC_workspace\PWM_from_ex\Libraries\XMCLib\inc\xmc_eth_mac.h ****  *
 463:D:\Naukowe\BLDC_workspace\PWM_from_ex\Libraries\XMCLib\inc\xmc_eth_mac.h ****  * \par
 464:D:\Naukowe\BLDC_workspace\PWM_from_ex\Libraries\XMCLib\inc\xmc_eth_mac.h ****  * The function sets the management clock divider by writing to the GMII_ADDRESS
 465:D:\Naukowe\BLDC_workspace\PWM_from_ex\Libraries\XMCLib\inc\xmc_eth_mac.h ****  * register.
 466:D:\Naukowe\BLDC_workspace\PWM_from_ex\Libraries\XMCLib\inc\xmc_eth_mac.h ****  */
 467:D:\Naukowe\BLDC_workspace\PWM_from_ex\Libraries\XMCLib\inc\xmc_eth_mac.h **** XMC_ETH_MAC_STATUS_t XMC_ETH_MAC_SetManagmentClockDivider(XMC_ETH_MAC_t *const eth_mac);
 468:D:\Naukowe\BLDC_workspace\PWM_from_ex\Libraries\XMCLib\inc\xmc_eth_mac.h **** 
 469:D:\Naukowe\BLDC_workspace\PWM_from_ex\Libraries\XMCLib\inc\xmc_eth_mac.h **** /**
 470:D:\Naukowe\BLDC_workspace\PWM_from_ex\Libraries\XMCLib\inc\xmc_eth_mac.h ****  * @param eth_mac A constant pointer to XMC_ETH_MAC_t, pointing to the ETH MAC base address
 471:D:\Naukowe\BLDC_workspace\PWM_from_ex\Libraries\XMCLib\inc\xmc_eth_mac.h ****  * @param addr The MAC address to set
 472:D:\Naukowe\BLDC_workspace\PWM_from_ex\Libraries\XMCLib\inc\xmc_eth_mac.h ****  * @return None
 473:D:\Naukowe\BLDC_workspace\PWM_from_ex\Libraries\XMCLib\inc\xmc_eth_mac.h ****  *
 474:D:\Naukowe\BLDC_workspace\PWM_from_ex\Libraries\XMCLib\inc\xmc_eth_mac.h ****  * \par<b>Description: </b><br>
 475:D:\Naukowe\BLDC_workspace\PWM_from_ex\Libraries\XMCLib\inc\xmc_eth_mac.h ****  * Set MAC address <br>
 476:D:\Naukowe\BLDC_workspace\PWM_from_ex\Libraries\XMCLib\inc\xmc_eth_mac.h ****  *
 477:D:\Naukowe\BLDC_workspace\PWM_from_ex\Libraries\XMCLib\inc\xmc_eth_mac.h ****  * \par
 478:D:\Naukowe\BLDC_workspace\PWM_from_ex\Libraries\XMCLib\inc\xmc_eth_mac.h ****  * The function sets the MAC address by writing to the MAC_ADDRESS0_HIGH and
 479:D:\Naukowe\BLDC_workspace\PWM_from_ex\Libraries\XMCLib\inc\xmc_eth_mac.h ****  * MAC_ADDRESS0_LOW registers.
 480:D:\Naukowe\BLDC_workspace\PWM_from_ex\Libraries\XMCLib\inc\xmc_eth_mac.h ****  */
 481:D:\Naukowe\BLDC_workspace\PWM_from_ex\Libraries\XMCLib\inc\xmc_eth_mac.h **** __STATIC_INLINE void XMC_ETH_MAC_SetAddress(XMC_ETH_MAC_t *const eth_mac, uint64_t addr)
 482:D:\Naukowe\BLDC_workspace\PWM_from_ex\Libraries\XMCLib\inc\xmc_eth_mac.h **** {
  87              	 .loc 1 482 0
  88              	 .cfi_startproc
  89              	 
  90              	 
  91              	 
  92 0000 B0B4     	 push {r4,r5,r7}
  93              	.LCFI6:
  94              	 .cfi_def_cfa_offset 12
  95              	 .cfi_offset 4,-12
  96              	 .cfi_offset 5,-8
  97              	 .cfi_offset 7,-4
  98 0002 85B0     	 sub sp,sp,#20
  99              	.LCFI7:
 100              	 .cfi_def_cfa_offset 32
 101 0004 00AF     	 add r7,sp,#0
 102              	.LCFI8:
 103              	 .cfi_def_cfa_register 7
 104 0006 F860     	 str r0,[r7,#12]
 105 0008 C7E90023 	 strd r2,[r7]
 483:D:\Naukowe\BLDC_workspace\PWM_from_ex\Libraries\XMCLib\inc\xmc_eth_mac.h ****   eth_mac->regs->MAC_ADDRESS0_HIGH = (uint32_t)(addr >> 32);
 106              	 .loc 1 483 0
 107 000c FB68     	 ldr r3,[r7,#12]
 108 000e 1968     	 ldr r1,[r3]
 109 0010 D7E90023 	 ldrd r2,[r7]
 110 0014 1C00     	 movs r4,r3
 111 0016 0025     	 movs r5,#0
 112 0018 2346     	 mov r3,r4
 113 001a 0B64     	 str r3,[r1,#64]
 484:D:\Naukowe\BLDC_workspace\PWM_from_ex\Libraries\XMCLib\inc\xmc_eth_mac.h ****   eth_mac->regs->MAC_ADDRESS0_LOW = (uint32_t)addr;
 114              	 .loc 1 484 0
 115 001c FB68     	 ldr r3,[r7,#12]
 116 001e 1B68     	 ldr r3,[r3]
 117 0020 3A68     	 ldr r2,[r7]
 118 0022 5A64     	 str r2,[r3,#68]
 485:D:\Naukowe\BLDC_workspace\PWM_from_ex\Libraries\XMCLib\inc\xmc_eth_mac.h **** }
 119              	 .loc 1 485 0
 120 0024 1437     	 adds r7,r7,#20
 121              	.LCFI9:
 122              	 .cfi_def_cfa_offset 12
 123 0026 BD46     	 mov sp,r7
 124              	.LCFI10:
 125              	 .cfi_def_cfa_register 13
 126              	 
 127 0028 B0BC     	 pop {r4,r5,r7}
 128              	.LCFI11:
 129              	 .cfi_restore 7
 130              	 .cfi_restore 5
 131              	 .cfi_restore 4
 132              	 .cfi_def_cfa_offset 0
 133 002a 7047     	 bx lr
 134              	 .cfi_endproc
 135              	.LFE130:
 137              	 .section .text.XMC_SCU_CLOCK_GetSystemClockFrequency,"ax",%progbits
 138              	 .align 2
 139              	 .thumb
 140              	 .thumb_func
 142              	XMC_SCU_CLOCK_GetSystemClockFrequency:
 143              	.LFB192:
 144              	 .file 2 "D:\\Naukowe\\BLDC_workspace\\PWM_from_ex\\Libraries\\XMCLib\\inc/xmc4_scu.h"
   1:D:\Naukowe\BLDC_workspace\PWM_from_ex\Libraries\XMCLib\inc\xmc4_scu.h **** /**
   2:D:\Naukowe\BLDC_workspace\PWM_from_ex\Libraries\XMCLib\inc\xmc4_scu.h ****  * @file xmc4_scu.h
   3:D:\Naukowe\BLDC_workspace\PWM_from_ex\Libraries\XMCLib\inc\xmc4_scu.h ****  * @date 2015-10-27
   4:D:\Naukowe\BLDC_workspace\PWM_from_ex\Libraries\XMCLib\inc\xmc4_scu.h ****  *
   5:D:\Naukowe\BLDC_workspace\PWM_from_ex\Libraries\XMCLib\inc\xmc4_scu.h ****  * @cond
   6:D:\Naukowe\BLDC_workspace\PWM_from_ex\Libraries\XMCLib\inc\xmc4_scu.h ****   *************************************************************************************************
   7:D:\Naukowe\BLDC_workspace\PWM_from_ex\Libraries\XMCLib\inc\xmc4_scu.h ****  * XMClib v2.1.2 - XMC Peripheral Driver Library 
   8:D:\Naukowe\BLDC_workspace\PWM_from_ex\Libraries\XMCLib\inc\xmc4_scu.h ****  *
   9:D:\Naukowe\BLDC_workspace\PWM_from_ex\Libraries\XMCLib\inc\xmc4_scu.h ****  * Copyright (c) 2015, Infineon Technologies AG
  10:D:\Naukowe\BLDC_workspace\PWM_from_ex\Libraries\XMCLib\inc\xmc4_scu.h ****  * All rights reserved.                        
  11:D:\Naukowe\BLDC_workspace\PWM_from_ex\Libraries\XMCLib\inc\xmc4_scu.h ****  *                                             
  12:D:\Naukowe\BLDC_workspace\PWM_from_ex\Libraries\XMCLib\inc\xmc4_scu.h ****  * Redistribution and use in source and binary forms, with or without modification,are permitted pr
  13:D:\Naukowe\BLDC_workspace\PWM_from_ex\Libraries\XMCLib\inc\xmc4_scu.h ****  * following conditions are met:   
  14:D:\Naukowe\BLDC_workspace\PWM_from_ex\Libraries\XMCLib\inc\xmc4_scu.h ****  *                                                                              
  15:D:\Naukowe\BLDC_workspace\PWM_from_ex\Libraries\XMCLib\inc\xmc4_scu.h ****  * Redistributions of source code must retain the above copyright notice, this list of conditions a
  16:D:\Naukowe\BLDC_workspace\PWM_from_ex\Libraries\XMCLib\inc\xmc4_scu.h ****  * disclaimer.                        
  17:D:\Naukowe\BLDC_workspace\PWM_from_ex\Libraries\XMCLib\inc\xmc4_scu.h ****  * 
  18:D:\Naukowe\BLDC_workspace\PWM_from_ex\Libraries\XMCLib\inc\xmc4_scu.h ****  * Redistributions in binary form must reproduce the above copyright notice, this list of condition
  19:D:\Naukowe\BLDC_workspace\PWM_from_ex\Libraries\XMCLib\inc\xmc4_scu.h ****  * disclaimer in the documentation and/or other materials provided with the distribution.          
  20:D:\Naukowe\BLDC_workspace\PWM_from_ex\Libraries\XMCLib\inc\xmc4_scu.h ****  * 
  21:D:\Naukowe\BLDC_workspace\PWM_from_ex\Libraries\XMCLib\inc\xmc4_scu.h ****  * Neither the name of the copyright holders nor the names of its contributors may be used to endor
  22:D:\Naukowe\BLDC_workspace\PWM_from_ex\Libraries\XMCLib\inc\xmc4_scu.h ****  * products derived from this software without specific prior written permission.                  
  23:D:\Naukowe\BLDC_workspace\PWM_from_ex\Libraries\XMCLib\inc\xmc4_scu.h ****  *                                                                              
  24:D:\Naukowe\BLDC_workspace\PWM_from_ex\Libraries\XMCLib\inc\xmc4_scu.h ****  * THIS SOFTWARE IS PROVIDED BY THE COPYRIGHT HOLDERS AND CONTRIBUTORS "AS IS" AND ANY EXPRESS OR I
  25:D:\Naukowe\BLDC_workspace\PWM_from_ex\Libraries\XMCLib\inc\xmc4_scu.h ****  * INCLUDING, BUT NOT LIMITED TO, THE IMPLIED WARRANTIES OF MERCHANTABILITY AND FITNESS FOR A PARTI
  26:D:\Naukowe\BLDC_workspace\PWM_from_ex\Libraries\XMCLib\inc\xmc4_scu.h ****  * DISCLAIMED. IN NO EVENT SHALL THE COPYRIGHT HOLDER OR CONTRIBUTORS BE LIABLE  FOR ANY DIRECT, IN
  27:D:\Naukowe\BLDC_workspace\PWM_from_ex\Libraries\XMCLib\inc\xmc4_scu.h ****  * SPECIAL, EXEMPLARY, OR CONSEQUENTIAL DAMAGES (INCLUDING, BUT NOT LIMITED TO, PROCUREMENT OF SUBS
  28:D:\Naukowe\BLDC_workspace\PWM_from_ex\Libraries\XMCLib\inc\xmc4_scu.h ****  * SERVICES; LOSS OF USE, DATA, OR PROFITS; OR BUSINESS INTERRUPTION) HOWEVER CAUSED AND ON ANY THE
  29:D:\Naukowe\BLDC_workspace\PWM_from_ex\Libraries\XMCLib\inc\xmc4_scu.h ****  * WHETHER IN CONTRACT, STRICT LIABILITY,OR TORT (INCLUDING NEGLIGENCE OR OTHERWISE) ARISING IN ANY
  30:D:\Naukowe\BLDC_workspace\PWM_from_ex\Libraries\XMCLib\inc\xmc4_scu.h ****  * OF THIS SOFTWARE, EVEN IF ADVISED OF THE POSSIBILITY OF SUCH DAMAGE.                            
  31:D:\Naukowe\BLDC_workspace\PWM_from_ex\Libraries\XMCLib\inc\xmc4_scu.h ****  *                                                                              
  32:D:\Naukowe\BLDC_workspace\PWM_from_ex\Libraries\XMCLib\inc\xmc4_scu.h ****  * To improve the quality of the software, users are encouraged to share modifications, enhancement
  33:D:\Naukowe\BLDC_workspace\PWM_from_ex\Libraries\XMCLib\inc\xmc4_scu.h ****  * Infineon Technologies AG dave@infineon.com).                                                    
  34:D:\Naukowe\BLDC_workspace\PWM_from_ex\Libraries\XMCLib\inc\xmc4_scu.h ****  **************************************************************************************************
  35:D:\Naukowe\BLDC_workspace\PWM_from_ex\Libraries\XMCLib\inc\xmc4_scu.h ****  *
  36:D:\Naukowe\BLDC_workspace\PWM_from_ex\Libraries\XMCLib\inc\xmc4_scu.h ****  * Change History
  37:D:\Naukowe\BLDC_workspace\PWM_from_ex\Libraries\XMCLib\inc\xmc4_scu.h ****  * --------------
  38:D:\Naukowe\BLDC_workspace\PWM_from_ex\Libraries\XMCLib\inc\xmc4_scu.h ****  *
  39:D:\Naukowe\BLDC_workspace\PWM_from_ex\Libraries\XMCLib\inc\xmc4_scu.h ****  * 2015-06-20:
  40:D:\Naukowe\BLDC_workspace\PWM_from_ex\Libraries\XMCLib\inc\xmc4_scu.h ****  *     - Initial version
  41:D:\Naukowe\BLDC_workspace\PWM_from_ex\Libraries\XMCLib\inc\xmc4_scu.h ****  *     - Documentation improved
  42:D:\Naukowe\BLDC_workspace\PWM_from_ex\Libraries\XMCLib\inc\xmc4_scu.h ****  *      
  43:D:\Naukowe\BLDC_workspace\PWM_from_ex\Libraries\XMCLib\inc\xmc4_scu.h ****  * @endcond 
  44:D:\Naukowe\BLDC_workspace\PWM_from_ex\Libraries\XMCLib\inc\xmc4_scu.h ****  *
  45:D:\Naukowe\BLDC_workspace\PWM_from_ex\Libraries\XMCLib\inc\xmc4_scu.h ****  */
  46:D:\Naukowe\BLDC_workspace\PWM_from_ex\Libraries\XMCLib\inc\xmc4_scu.h **** 
  47:D:\Naukowe\BLDC_workspace\PWM_from_ex\Libraries\XMCLib\inc\xmc4_scu.h **** #ifndef XMC4_SCU_H
  48:D:\Naukowe\BLDC_workspace\PWM_from_ex\Libraries\XMCLib\inc\xmc4_scu.h **** #define XMC4_SCU_H
  49:D:\Naukowe\BLDC_workspace\PWM_from_ex\Libraries\XMCLib\inc\xmc4_scu.h **** 
  50:D:\Naukowe\BLDC_workspace\PWM_from_ex\Libraries\XMCLib\inc\xmc4_scu.h **** /**************************************************************************************************
  51:D:\Naukowe\BLDC_workspace\PWM_from_ex\Libraries\XMCLib\inc\xmc4_scu.h ****  * HEADER FILES
  52:D:\Naukowe\BLDC_workspace\PWM_from_ex\Libraries\XMCLib\inc\xmc4_scu.h ****  **************************************************************************************************
  53:D:\Naukowe\BLDC_workspace\PWM_from_ex\Libraries\XMCLib\inc\xmc4_scu.h **** 
  54:D:\Naukowe\BLDC_workspace\PWM_from_ex\Libraries\XMCLib\inc\xmc4_scu.h **** #include "xmc_common.h"
  55:D:\Naukowe\BLDC_workspace\PWM_from_ex\Libraries\XMCLib\inc\xmc4_scu.h **** 
  56:D:\Naukowe\BLDC_workspace\PWM_from_ex\Libraries\XMCLib\inc\xmc4_scu.h **** #if UC_FAMILY == XMC4
  57:D:\Naukowe\BLDC_workspace\PWM_from_ex\Libraries\XMCLib\inc\xmc4_scu.h **** 
  58:D:\Naukowe\BLDC_workspace\PWM_from_ex\Libraries\XMCLib\inc\xmc4_scu.h **** /**
  59:D:\Naukowe\BLDC_workspace\PWM_from_ex\Libraries\XMCLib\inc\xmc4_scu.h ****  * @addtogroup XMClib XMC Peripheral Library
  60:D:\Naukowe\BLDC_workspace\PWM_from_ex\Libraries\XMCLib\inc\xmc4_scu.h ****  * @{
  61:D:\Naukowe\BLDC_workspace\PWM_from_ex\Libraries\XMCLib\inc\xmc4_scu.h ****  */
  62:D:\Naukowe\BLDC_workspace\PWM_from_ex\Libraries\XMCLib\inc\xmc4_scu.h ****  
  63:D:\Naukowe\BLDC_workspace\PWM_from_ex\Libraries\XMCLib\inc\xmc4_scu.h **** /**
  64:D:\Naukowe\BLDC_workspace\PWM_from_ex\Libraries\XMCLib\inc\xmc4_scu.h ****  * @addtogroup SCU
  65:D:\Naukowe\BLDC_workspace\PWM_from_ex\Libraries\XMCLib\inc\xmc4_scu.h ****  * @{
  66:D:\Naukowe\BLDC_workspace\PWM_from_ex\Libraries\XMCLib\inc\xmc4_scu.h ****  */
  67:D:\Naukowe\BLDC_workspace\PWM_from_ex\Libraries\XMCLib\inc\xmc4_scu.h **** 
  68:D:\Naukowe\BLDC_workspace\PWM_from_ex\Libraries\XMCLib\inc\xmc4_scu.h **** /**************************************************************************************************
  69:D:\Naukowe\BLDC_workspace\PWM_from_ex\Libraries\XMCLib\inc\xmc4_scu.h ****  * MACROS
  70:D:\Naukowe\BLDC_workspace\PWM_from_ex\Libraries\XMCLib\inc\xmc4_scu.h ****  **************************************************************************************************
  71:D:\Naukowe\BLDC_workspace\PWM_from_ex\Libraries\XMCLib\inc\xmc4_scu.h **** #define PLL_PDIV_XTAL_8MHZ (1U)
  72:D:\Naukowe\BLDC_workspace\PWM_from_ex\Libraries\XMCLib\inc\xmc4_scu.h **** #define PLL_NDIV_XTAL_8MHZ (89U)
  73:D:\Naukowe\BLDC_workspace\PWM_from_ex\Libraries\XMCLib\inc\xmc4_scu.h **** #define PLL_K2DIV_XTAL_8MHZ (2U)
  74:D:\Naukowe\BLDC_workspace\PWM_from_ex\Libraries\XMCLib\inc\xmc4_scu.h **** 
  75:D:\Naukowe\BLDC_workspace\PWM_from_ex\Libraries\XMCLib\inc\xmc4_scu.h **** #define PLL_PDIV_XTAL_12MHZ (1U)
  76:D:\Naukowe\BLDC_workspace\PWM_from_ex\Libraries\XMCLib\inc\xmc4_scu.h **** #define PLL_NDIV_XTAL_12MHZ (79U)
  77:D:\Naukowe\BLDC_workspace\PWM_from_ex\Libraries\XMCLib\inc\xmc4_scu.h **** #define PLL_K2DIV_XTAL_12MHZ (3U)
  78:D:\Naukowe\BLDC_workspace\PWM_from_ex\Libraries\XMCLib\inc\xmc4_scu.h **** 
  79:D:\Naukowe\BLDC_workspace\PWM_from_ex\Libraries\XMCLib\inc\xmc4_scu.h **** #define PLL_PDIV_XTAL_16MHZ (1U)
  80:D:\Naukowe\BLDC_workspace\PWM_from_ex\Libraries\XMCLib\inc\xmc4_scu.h **** #define PLL_NDIV_XTAL_16MHZ (59U)
  81:D:\Naukowe\BLDC_workspace\PWM_from_ex\Libraries\XMCLib\inc\xmc4_scu.h **** #define PLL_K2DIV_XTAL_16MHZ (3U)
  82:D:\Naukowe\BLDC_workspace\PWM_from_ex\Libraries\XMCLib\inc\xmc4_scu.h **** 
  83:D:\Naukowe\BLDC_workspace\PWM_from_ex\Libraries\XMCLib\inc\xmc4_scu.h **** #define XMC_SCU_INTERRUPT_EVENT_WDT_WARN           SCU_INTERRUPT_SRSTAT_PRWARN_Msk /**< Watchdog pr
  84:D:\Naukowe\BLDC_workspace\PWM_from_ex\Libraries\XMCLib\inc\xmc4_scu.h **** #define XMC_SCU_INTERRUPT_EVENT_RTC_PERIODIC       SCU_INTERRUPT_SRSTAT_PI_Msk     /**< RTC periodi
  85:D:\Naukowe\BLDC_workspace\PWM_from_ex\Libraries\XMCLib\inc\xmc4_scu.h **** #define XMC_SCU_INTERRUPT_EVENT_RTC_ALARM          SCU_INTERRUPT_SRSTAT_AI_Msk     /**< RTC alarm e
  86:D:\Naukowe\BLDC_workspace\PWM_from_ex\Libraries\XMCLib\inc\xmc4_scu.h **** #define XMC_SCU_INTERRUPT_EVENT_DLR_OVERRUN        SCU_INTERRUPT_SRSTAT_DLROVR_Msk /**< DLR overrun
  87:D:\Naukowe\BLDC_workspace\PWM_from_ex\Libraries\XMCLib\inc\xmc4_scu.h **** #if defined(SCU_INTERRUPT_SRSTAT_LPACCR_Msk)
  88:D:\Naukowe\BLDC_workspace\PWM_from_ex\Libraries\XMCLib\inc\xmc4_scu.h **** #define XMC_SCU_INTERRUPT_EVENT_LPACCR_UPDATED     SCU_INTERRUPT_SRSTAT_LPACCR_Msk /**< LPAC Contro
  89:D:\Naukowe\BLDC_workspace\PWM_from_ex\Libraries\XMCLib\inc\xmc4_scu.h **** #endif
  90:D:\Naukowe\BLDC_workspace\PWM_from_ex\Libraries\XMCLib\inc\xmc4_scu.h **** #if defined(SCU_INTERRUPT_SRSTAT_LPACTH0_Msk)
  91:D:\Naukowe\BLDC_workspace\PWM_from_ex\Libraries\XMCLib\inc\xmc4_scu.h **** #define XMC_SCU_INTERRUPT_EVENT_LPACTH0_UPDATED    SCU_INTERRUPT_SRSTAT_LPACTH0_Msk /**< LPAC Thres
  92:D:\Naukowe\BLDC_workspace\PWM_from_ex\Libraries\XMCLib\inc\xmc4_scu.h **** #endif
  93:D:\Naukowe\BLDC_workspace\PWM_from_ex\Libraries\XMCLib\inc\xmc4_scu.h **** #if defined(SCU_INTERRUPT_SRSTAT_LPACTH1_Msk)
  94:D:\Naukowe\BLDC_workspace\PWM_from_ex\Libraries\XMCLib\inc\xmc4_scu.h **** #define XMC_SCU_INTERRUPT_EVENT_LPACTH1_UPDATED    SCU_INTERRUPT_SRSTAT_LPACTH1_Msk  /**< LPAC Thre
  95:D:\Naukowe\BLDC_workspace\PWM_from_ex\Libraries\XMCLib\inc\xmc4_scu.h **** #endif
  96:D:\Naukowe\BLDC_workspace\PWM_from_ex\Libraries\XMCLib\inc\xmc4_scu.h **** #if defined(SCU_INTERRUPT_SRSTAT_LPACST_Msk)
  97:D:\Naukowe\BLDC_workspace\PWM_from_ex\Libraries\XMCLib\inc\xmc4_scu.h **** #define XMC_SCU_INTERRUPT_EVENT_LPACST_UPDATED     SCU_INTERRUPT_SRSTAT_LPACST_Msk  /**< LPAC Statu
  98:D:\Naukowe\BLDC_workspace\PWM_from_ex\Libraries\XMCLib\inc\xmc4_scu.h **** #endif
  99:D:\Naukowe\BLDC_workspace\PWM_from_ex\Libraries\XMCLib\inc\xmc4_scu.h **** #if defined(SCU_INTERRUPT_SRSTAT_LPACCLR_Msk)
 100:D:\Naukowe\BLDC_workspace\PWM_from_ex\Libraries\XMCLib\inc\xmc4_scu.h **** #define XMC_SCU_INTERRUPT_EVENT_LPACCLR_UPDATED    SCU_INTERRUPT_SRSTAT_LPACCLR_Msk /**< LPAC event
 101:D:\Naukowe\BLDC_workspace\PWM_from_ex\Libraries\XMCLib\inc\xmc4_scu.h **** #endif
 102:D:\Naukowe\BLDC_workspace\PWM_from_ex\Libraries\XMCLib\inc\xmc4_scu.h **** #if defined(SCU_INTERRUPT_SRSTAT_LPACSET_Msk)
 103:D:\Naukowe\BLDC_workspace\PWM_from_ex\Libraries\XMCLib\inc\xmc4_scu.h **** #define XMC_SCU_INTERRUPT_EVENT_LPACSET_UPDATED    SCU_INTERRUPT_SRSTAT_LPACSET_Msk /**< LPAC event
 104:D:\Naukowe\BLDC_workspace\PWM_from_ex\Libraries\XMCLib\inc\xmc4_scu.h **** #endif
 105:D:\Naukowe\BLDC_workspace\PWM_from_ex\Libraries\XMCLib\inc\xmc4_scu.h **** #if defined(SCU_INTERRUPT_SRSTAT_HINTST_Msk)
 106:D:\Naukowe\BLDC_workspace\PWM_from_ex\Libraries\XMCLib\inc\xmc4_scu.h **** #define XMC_SCU_INTERRUPT_EVENT_HINTST_UPDATED     SCU_INTERRUPT_SRSTAT_HINTST_Msk /**< HIB HINTST 
 107:D:\Naukowe\BLDC_workspace\PWM_from_ex\Libraries\XMCLib\inc\xmc4_scu.h **** #endif
 108:D:\Naukowe\BLDC_workspace\PWM_from_ex\Libraries\XMCLib\inc\xmc4_scu.h **** #if defined(SCU_INTERRUPT_SRSTAT_HINTCLR_Msk)
 109:D:\Naukowe\BLDC_workspace\PWM_from_ex\Libraries\XMCLib\inc\xmc4_scu.h **** #define XMC_SCU_INTERRUPT_EVENT_HINTCLR_UPDATED    SCU_INTERRUPT_SRSTAT_HINTCLR_Msk /**< HIB HINTCL
 110:D:\Naukowe\BLDC_workspace\PWM_from_ex\Libraries\XMCLib\inc\xmc4_scu.h **** #endif
 111:D:\Naukowe\BLDC_workspace\PWM_from_ex\Libraries\XMCLib\inc\xmc4_scu.h **** #if defined(SCU_INTERRUPT_SRSTAT_HINTSET_Msk)
 112:D:\Naukowe\BLDC_workspace\PWM_from_ex\Libraries\XMCLib\inc\xmc4_scu.h **** #define XMC_SCU_INTERRUPT_EVENT_HINTSET_UPDATED    SCU_INTERRUPT_SRSTAT_HINTSET_Msk /**< HIB HINTSE
 113:D:\Naukowe\BLDC_workspace\PWM_from_ex\Libraries\XMCLib\inc\xmc4_scu.h **** #endif
 114:D:\Naukowe\BLDC_workspace\PWM_from_ex\Libraries\XMCLib\inc\xmc4_scu.h **** #define XMC_SCU_INTERRUPT_EVENT_HDSTAT_UPDATED     SCU_INTERRUPT_SRSTAT_HDSTAT_Msk /**< HIB HDSTAT 
 115:D:\Naukowe\BLDC_workspace\PWM_from_ex\Libraries\XMCLib\inc\xmc4_scu.h **** #define XMC_SCU_INTERRUPT_EVENT_HDCLR_UPDATED      SCU_INTERRUPT_SRSTAT_HDCLR_Msk /**< HIB HDCLR re
 116:D:\Naukowe\BLDC_workspace\PWM_from_ex\Libraries\XMCLib\inc\xmc4_scu.h **** #define XMC_SCU_INTERRUPT_EVENT_HDSET_UPDATED      SCU_INTERRUPT_SRSTAT_HDSET_Msk /**< HIB HDSET re
 117:D:\Naukowe\BLDC_workspace\PWM_from_ex\Libraries\XMCLib\inc\xmc4_scu.h **** #define XMC_SCU_INTERRUPT_EVENT_HDCR_UPDATED       SCU_INTERRUPT_SRSTAT_HDCR_Msk /**< HIB HDCR regi
 118:D:\Naukowe\BLDC_workspace\PWM_from_ex\Libraries\XMCLib\inc\xmc4_scu.h **** #define XMC_SCU_INTERRUPT_EVENT_OSCSICTRL_UPDATED  SCU_INTERRUPT_SRSTAT_OSCSICTRL_Msk /**< HIB OSCS
 119:D:\Naukowe\BLDC_workspace\PWM_from_ex\Libraries\XMCLib\inc\xmc4_scu.h **** #define XMC_SCU_INTERRUPT_EVENT_OSCULSTAT_UPDATED  SCU_INTERRUPT_SRSTAT_OSCULSTAT_Msk /**< HIB OSCU
 120:D:\Naukowe\BLDC_workspace\PWM_from_ex\Libraries\XMCLib\inc\xmc4_scu.h **** #define XMC_SCU_INTERRUPT_EVENT_OSCULCTRL_UPDATED  SCU_INTERRUPT_SRSTAT_OSCULCTRL_Msk /**< HIB OSCU
 121:D:\Naukowe\BLDC_workspace\PWM_from_ex\Libraries\XMCLib\inc\xmc4_scu.h **** #define XMC_SCU_INTERRUPT_EVENT_RTCCTR_UPDATED     SCU_INTERRUPT_SRSTAT_RTC_CTR_Msk /**< HIB RTCCTR
 122:D:\Naukowe\BLDC_workspace\PWM_from_ex\Libraries\XMCLib\inc\xmc4_scu.h **** #define XMC_SCU_INTERRUPT_EVENT_RTCATIM0_UPDATED   SCU_INTERRUPT_SRSTAT_RTC_ATIM0_Msk /**< HIB RTCA
 123:D:\Naukowe\BLDC_workspace\PWM_from_ex\Libraries\XMCLib\inc\xmc4_scu.h **** #define XMC_SCU_INTERRUPT_EVENT_RTCATIM1_UPDATED   SCU_INTERRUPT_SRSTAT_RTC_ATIM1_Msk /**< HIB RTCA
 124:D:\Naukowe\BLDC_workspace\PWM_from_ex\Libraries\XMCLib\inc\xmc4_scu.h **** #define XMC_SCU_INTERRUPT_EVENT_RTCTIM0_UPDATED    SCU_INTERRUPT_SRSTAT_RTC_TIM0_Msk /**< HIB TIM0 
 125:D:\Naukowe\BLDC_workspace\PWM_from_ex\Libraries\XMCLib\inc\xmc4_scu.h **** #define XMC_SCU_INTERRUPT_EVENT_RTCTIM1_UPDATED    SCU_INTERRUPT_SRSTAT_RTC_TIM1_Msk /**< HIB TIM1 
 126:D:\Naukowe\BLDC_workspace\PWM_from_ex\Libraries\XMCLib\inc\xmc4_scu.h **** #define XMC_SCU_INTERRUPT_EVENT_RMX_UPDATED        SCU_INTERRUPT_SRSTAT_RMX_Msk /**< HIB RMX regist
 127:D:\Naukowe\BLDC_workspace\PWM_from_ex\Libraries\XMCLib\inc\xmc4_scu.h **** 
 128:D:\Naukowe\BLDC_workspace\PWM_from_ex\Libraries\XMCLib\inc\xmc4_scu.h **** /**************************************************************************************************
 129:D:\Naukowe\BLDC_workspace\PWM_from_ex\Libraries\XMCLib\inc\xmc4_scu.h ****  * ENUMS
 130:D:\Naukowe\BLDC_workspace\PWM_from_ex\Libraries\XMCLib\inc\xmc4_scu.h ****  **************************************************************************************************
 131:D:\Naukowe\BLDC_workspace\PWM_from_ex\Libraries\XMCLib\inc\xmc4_scu.h **** /**
 132:D:\Naukowe\BLDC_workspace\PWM_from_ex\Libraries\XMCLib\inc\xmc4_scu.h ****  *  Defines Capture/Compare unit timer slice trigger, that enables synchronous start function avail
 133:D:\Naukowe\BLDC_workspace\PWM_from_ex\Libraries\XMCLib\inc\xmc4_scu.h ****  *  CCUCON register. Use type \a XMC_SCU_CCU_TRIGGER_t for accessing these enum parameters.
 134:D:\Naukowe\BLDC_workspace\PWM_from_ex\Libraries\XMCLib\inc\xmc4_scu.h ****  */
 135:D:\Naukowe\BLDC_workspace\PWM_from_ex\Libraries\XMCLib\inc\xmc4_scu.h **** typedef enum XMC_SCU_CCU_TRIGGER
 136:D:\Naukowe\BLDC_workspace\PWM_from_ex\Libraries\XMCLib\inc\xmc4_scu.h **** {
 137:D:\Naukowe\BLDC_workspace\PWM_from_ex\Libraries\XMCLib\inc\xmc4_scu.h **** #if defined(CCU40)
 138:D:\Naukowe\BLDC_workspace\PWM_from_ex\Libraries\XMCLib\inc\xmc4_scu.h ****   XMC_SCU_CCU_TRIGGER_CCU40 = SCU_GENERAL_CCUCON_GSC40_Msk, /**< Trigger mask used for Global Start
 139:D:\Naukowe\BLDC_workspace\PWM_from_ex\Libraries\XMCLib\inc\xmc4_scu.h ****                                                                  CCU40 peripheral. */
 140:D:\Naukowe\BLDC_workspace\PWM_from_ex\Libraries\XMCLib\inc\xmc4_scu.h **** #endif
 141:D:\Naukowe\BLDC_workspace\PWM_from_ex\Libraries\XMCLib\inc\xmc4_scu.h **** #if defined(CCU41)
 142:D:\Naukowe\BLDC_workspace\PWM_from_ex\Libraries\XMCLib\inc\xmc4_scu.h ****   XMC_SCU_CCU_TRIGGER_CCU41 = SCU_GENERAL_CCUCON_GSC41_Msk, /**< Trigger mask used for Global Start
 143:D:\Naukowe\BLDC_workspace\PWM_from_ex\Libraries\XMCLib\inc\xmc4_scu.h ****                                                                  CCU41 peripheral. */
 144:D:\Naukowe\BLDC_workspace\PWM_from_ex\Libraries\XMCLib\inc\xmc4_scu.h **** #endif
 145:D:\Naukowe\BLDC_workspace\PWM_from_ex\Libraries\XMCLib\inc\xmc4_scu.h **** #if defined(CCU42)
 146:D:\Naukowe\BLDC_workspace\PWM_from_ex\Libraries\XMCLib\inc\xmc4_scu.h ****   XMC_SCU_CCU_TRIGGER_CCU42 = SCU_GENERAL_CCUCON_GSC42_Msk, /**< Trigger mask used for Global Start
 147:D:\Naukowe\BLDC_workspace\PWM_from_ex\Libraries\XMCLib\inc\xmc4_scu.h ****                                                                  CCU42 peripheral. */
 148:D:\Naukowe\BLDC_workspace\PWM_from_ex\Libraries\XMCLib\inc\xmc4_scu.h **** #endif
 149:D:\Naukowe\BLDC_workspace\PWM_from_ex\Libraries\XMCLib\inc\xmc4_scu.h **** #if defined(CCU43)
 150:D:\Naukowe\BLDC_workspace\PWM_from_ex\Libraries\XMCLib\inc\xmc4_scu.h ****   XMC_SCU_CCU_TRIGGER_CCU43 = SCU_GENERAL_CCUCON_GSC43_Msk, /**< Trigger mask used for Global Start
 151:D:\Naukowe\BLDC_workspace\PWM_from_ex\Libraries\XMCLib\inc\xmc4_scu.h ****                                                                  CCU43 peripheral. */
 152:D:\Naukowe\BLDC_workspace\PWM_from_ex\Libraries\XMCLib\inc\xmc4_scu.h **** #endif
 153:D:\Naukowe\BLDC_workspace\PWM_from_ex\Libraries\XMCLib\inc\xmc4_scu.h **** #if defined(CCU80)
 154:D:\Naukowe\BLDC_workspace\PWM_from_ex\Libraries\XMCLib\inc\xmc4_scu.h ****   XMC_SCU_CCU_TRIGGER_CCU80 = SCU_GENERAL_CCUCON_GSC80_Msk, /**< Trigger mask used for Global Start
 155:D:\Naukowe\BLDC_workspace\PWM_from_ex\Libraries\XMCLib\inc\xmc4_scu.h ****                                                                  CCU80 peripheral. */
 156:D:\Naukowe\BLDC_workspace\PWM_from_ex\Libraries\XMCLib\inc\xmc4_scu.h **** #endif
 157:D:\Naukowe\BLDC_workspace\PWM_from_ex\Libraries\XMCLib\inc\xmc4_scu.h **** #if defined(CCU81)
 158:D:\Naukowe\BLDC_workspace\PWM_from_ex\Libraries\XMCLib\inc\xmc4_scu.h ****   XMC_SCU_CCU_TRIGGER_CCU81 = SCU_GENERAL_CCUCON_GSC81_Msk /**< Trigger mask used for Global Start 
 159:D:\Naukowe\BLDC_workspace\PWM_from_ex\Libraries\XMCLib\inc\xmc4_scu.h ****                                                                  CCU41 peripheral. */
 160:D:\Naukowe\BLDC_workspace\PWM_from_ex\Libraries\XMCLib\inc\xmc4_scu.h **** #endif
 161:D:\Naukowe\BLDC_workspace\PWM_from_ex\Libraries\XMCLib\inc\xmc4_scu.h **** } XMC_SCU_CCU_TRIGGER_t;
 162:D:\Naukowe\BLDC_workspace\PWM_from_ex\Libraries\XMCLib\inc\xmc4_scu.h **** 
 163:D:\Naukowe\BLDC_workspace\PWM_from_ex\Libraries\XMCLib\inc\xmc4_scu.h **** /**
 164:D:\Naukowe\BLDC_workspace\PWM_from_ex\Libraries\XMCLib\inc\xmc4_scu.h ****  *  Defines enumerations representing the status of trap cause. The cause of the trap gets automati
 165:D:\Naukowe\BLDC_workspace\PWM_from_ex\Libraries\XMCLib\inc\xmc4_scu.h ****  *  the \a TRAPSTAT register and can be checked by user software to determine the state of the syst
 166:D:\Naukowe\BLDC_workspace\PWM_from_ex\Libraries\XMCLib\inc\xmc4_scu.h ****  *  purpose. 
 167:D:\Naukowe\BLDC_workspace\PWM_from_ex\Libraries\XMCLib\inc\xmc4_scu.h ****  *  Use type \a XMC_SCU_TRAP_t for accessing these enum parameters.
 168:D:\Naukowe\BLDC_workspace\PWM_from_ex\Libraries\XMCLib\inc\xmc4_scu.h ****  */
 169:D:\Naukowe\BLDC_workspace\PWM_from_ex\Libraries\XMCLib\inc\xmc4_scu.h **** typedef enum XMC_SCU_TRAP 
 170:D:\Naukowe\BLDC_workspace\PWM_from_ex\Libraries\XMCLib\inc\xmc4_scu.h **** {
 171:D:\Naukowe\BLDC_workspace\PWM_from_ex\Libraries\XMCLib\inc\xmc4_scu.h ****   XMC_SCU_TRAP_OSC_WDG      = SCU_TRAP_TRAPSTAT_SOSCWDGT_Msk, /**< OSC_HP Oscillator Watchdog trap.
 172:D:\Naukowe\BLDC_workspace\PWM_from_ex\Libraries\XMCLib\inc\xmc4_scu.h ****   XMC_SCU_TRAP_VCO_LOCK     = SCU_TRAP_TRAPSTAT_SVCOLCKT_Msk, /**< PLL loss of lock trap. */
 173:D:\Naukowe\BLDC_workspace\PWM_from_ex\Libraries\XMCLib\inc\xmc4_scu.h ****   XMC_SCU_TRAP_USB_VCO_LOCK = SCU_TRAP_TRAPSTAT_UVCOLCKT_Msk, /**< USB PLL loss of lock trap. */ 
 174:D:\Naukowe\BLDC_workspace\PWM_from_ex\Libraries\XMCLib\inc\xmc4_scu.h ****   XMC_SCU_TRAP_PARITY_ERROR = SCU_TRAP_TRAPSTAT_PET_Msk,      /**< Memory Parity error trap. */  
 175:D:\Naukowe\BLDC_workspace\PWM_from_ex\Libraries\XMCLib\inc\xmc4_scu.h ****   XMC_SCU_TRAP_BROWNOUT     = SCU_TRAP_TRAPSTAT_BRWNT_Msk,    /**< Brownout trap. */ 
 176:D:\Naukowe\BLDC_workspace\PWM_from_ex\Libraries\XMCLib\inc\xmc4_scu.h ****   XMC_SCU_TRAP_ULP_WDG      = SCU_TRAP_TRAPSTAT_ULPWDGT_Msk,  /**< Unstable 32KHz clock trap. */ 
 177:D:\Naukowe\BLDC_workspace\PWM_from_ex\Libraries\XMCLib\inc\xmc4_scu.h ****   XMC_SCU_TRAP_PER_BRIDGE0  = SCU_TRAP_TRAPSTAT_BWERR0T_Msk,  /**< Bad memory access of peripherals
 178:D:\Naukowe\BLDC_workspace\PWM_from_ex\Libraries\XMCLib\inc\xmc4_scu.h ****   XMC_SCU_TRAP_PER_BRIDGE1  = SCU_TRAP_TRAPSTAT_BWERR1T_Msk,  /**< Bad memory access of peripherals
 179:D:\Naukowe\BLDC_workspace\PWM_from_ex\Libraries\XMCLib\inc\xmc4_scu.h **** #if defined(SCU_TRAP_TRAPSTAT_TEMPHIT_Msk)
 180:D:\Naukowe\BLDC_workspace\PWM_from_ex\Libraries\XMCLib\inc\xmc4_scu.h ****   XMC_SCU_TRAP_DIETEMP_HIGH = SCU_TRAP_TRAPSTAT_TEMPHIT_Msk,  /**< Die temperature higher than expe
 181:D:\Naukowe\BLDC_workspace\PWM_from_ex\Libraries\XMCLib\inc\xmc4_scu.h **** #endif
 182:D:\Naukowe\BLDC_workspace\PWM_from_ex\Libraries\XMCLib\inc\xmc4_scu.h **** #if defined(SCU_TRAP_TRAPSTAT_TEMPLOT_Msk)
 183:D:\Naukowe\BLDC_workspace\PWM_from_ex\Libraries\XMCLib\inc\xmc4_scu.h ****   XMC_SCU_TRAP_DIETEMP_LOW  = SCU_TRAP_TRAPSTAT_TEMPLOT_Msk,  /**< Die temperature lower than expec
 184:D:\Naukowe\BLDC_workspace\PWM_from_ex\Libraries\XMCLib\inc\xmc4_scu.h **** #endif
 185:D:\Naukowe\BLDC_workspace\PWM_from_ex\Libraries\XMCLib\inc\xmc4_scu.h **** #if defined(ECAT0)
 186:D:\Naukowe\BLDC_workspace\PWM_from_ex\Libraries\XMCLib\inc\xmc4_scu.h ****   XMC_SCU_TRAP_ECAT_PARITY_ERROR = SCU_TRAP_TRAPSTAT_ECAT0RST_Msk, /**< EtherCat Reset */ 
 187:D:\Naukowe\BLDC_workspace\PWM_from_ex\Libraries\XMCLib\inc\xmc4_scu.h **** #endif
 188:D:\Naukowe\BLDC_workspace\PWM_from_ex\Libraries\XMCLib\inc\xmc4_scu.h **** } XMC_SCU_TRAP_t;
 189:D:\Naukowe\BLDC_workspace\PWM_from_ex\Libraries\XMCLib\inc\xmc4_scu.h **** 
 190:D:\Naukowe\BLDC_workspace\PWM_from_ex\Libraries\XMCLib\inc\xmc4_scu.h **** /**
 191:D:\Naukowe\BLDC_workspace\PWM_from_ex\Libraries\XMCLib\inc\xmc4_scu.h ****  *  Defines enumerations for different parity event generating modules that in turn generate a trap
 192:D:\Naukowe\BLDC_workspace\PWM_from_ex\Libraries\XMCLib\inc\xmc4_scu.h ****  *  Parity can be enabled with \a PETE register in order to get the trap flag reflected in \a TRAPR
 193:D:\Naukowe\BLDC_workspace\PWM_from_ex\Libraries\XMCLib\inc\xmc4_scu.h ****  *  configure parity error trap generation mechanism bits of \a PETE register.
 194:D:\Naukowe\BLDC_workspace\PWM_from_ex\Libraries\XMCLib\inc\xmc4_scu.h ****  *  All the enum items are tabulated as per bits present in \a PETE register.
 195:D:\Naukowe\BLDC_workspace\PWM_from_ex\Libraries\XMCLib\inc\xmc4_scu.h ****  *  Use type \a XMC_SCU_PARITY_t for accessing these enum parameters.
 196:D:\Naukowe\BLDC_workspace\PWM_from_ex\Libraries\XMCLib\inc\xmc4_scu.h ****  */
 197:D:\Naukowe\BLDC_workspace\PWM_from_ex\Libraries\XMCLib\inc\xmc4_scu.h **** typedef enum XMC_SCU_PARITY
 198:D:\Naukowe\BLDC_workspace\PWM_from_ex\Libraries\XMCLib\inc\xmc4_scu.h **** {
 199:D:\Naukowe\BLDC_workspace\PWM_from_ex\Libraries\XMCLib\inc\xmc4_scu.h ****   XMC_SCU_PARITY_PSRAM_MEM  = SCU_PARITY_PEEN_PEENPS_Msk,   /**< Program SRAM parity error trap. */
 200:D:\Naukowe\BLDC_workspace\PWM_from_ex\Libraries\XMCLib\inc\xmc4_scu.h ****   XMC_SCU_PARITY_DSRAM1_MEM = SCU_PARITY_PEEN_PEENDS1_Msk,  /**< Data SRAM-1 parity error trap. */ 
 201:D:\Naukowe\BLDC_workspace\PWM_from_ex\Libraries\XMCLib\inc\xmc4_scu.h **** #if defined(XMC_SCU_PARITY_DSRAM2_MEM)
 202:D:\Naukowe\BLDC_workspace\PWM_from_ex\Libraries\XMCLib\inc\xmc4_scu.h ****   XMC_SCU_PARITY_DSRAM2_MEM = SCU_PARITY_PEEN_PEENDS2_Msk,  /**< Data SRAM-2 parity error trap. */ 
 203:D:\Naukowe\BLDC_workspace\PWM_from_ex\Libraries\XMCLib\inc\xmc4_scu.h **** #endif
 204:D:\Naukowe\BLDC_workspace\PWM_from_ex\Libraries\XMCLib\inc\xmc4_scu.h ****   XMC_SCU_PARITY_USIC0_MEM  = SCU_PARITY_PEEN_PEENU0_Msk,   /**< USIC0 memory parity error trap. */
 205:D:\Naukowe\BLDC_workspace\PWM_from_ex\Libraries\XMCLib\inc\xmc4_scu.h **** #if defined(XMC_SCU_PARITY_USIC1_MEM)
 206:D:\Naukowe\BLDC_workspace\PWM_from_ex\Libraries\XMCLib\inc\xmc4_scu.h ****   XMC_SCU_PARITY_USIC1_MEM  = SCU_PARITY_PEEN_PEENU1_Msk,   /**< USIC1 memory parity error trap. */
 207:D:\Naukowe\BLDC_workspace\PWM_from_ex\Libraries\XMCLib\inc\xmc4_scu.h **** #endif
 208:D:\Naukowe\BLDC_workspace\PWM_from_ex\Libraries\XMCLib\inc\xmc4_scu.h **** #if defined(XMC_SCU_PARITY_USIC2_MEM)
 209:D:\Naukowe\BLDC_workspace\PWM_from_ex\Libraries\XMCLib\inc\xmc4_scu.h ****   XMC_SCU_PARITY_USIC2_MEM  = SCU_PARITY_PEEN_PEENU2_Msk,   /**< USIC2 memory parity error trap. */
 210:D:\Naukowe\BLDC_workspace\PWM_from_ex\Libraries\XMCLib\inc\xmc4_scu.h **** #endif
 211:D:\Naukowe\BLDC_workspace\PWM_from_ex\Libraries\XMCLib\inc\xmc4_scu.h ****   XMC_SCU_PARITY_MCAN_MEM   = SCU_PARITY_PEEN_PEENMC_Msk,   /**< CAN memory parity error trap. */
 212:D:\Naukowe\BLDC_workspace\PWM_from_ex\Libraries\XMCLib\inc\xmc4_scu.h ****   XMC_SCU_PARITY_PMU_MEM    = SCU_PARITY_PEEN_PEENPPRF_Msk, /**< PMU Prefetch memory parity error t
 213:D:\Naukowe\BLDC_workspace\PWM_from_ex\Libraries\XMCLib\inc\xmc4_scu.h ****   XMC_SCU_PARITY_USB_MEM    = SCU_PARITY_PEEN_PEENUSB_Msk,  /**< USB memory parity error trap. */ 
 214:D:\Naukowe\BLDC_workspace\PWM_from_ex\Libraries\XMCLib\inc\xmc4_scu.h **** #if defined(SCU_PARITY_PEEN_PEENETH0TX_Msk)
 215:D:\Naukowe\BLDC_workspace\PWM_from_ex\Libraries\XMCLib\inc\xmc4_scu.h ****   XMC_SCU_PARITY_ETH_TXMEM  = SCU_PARITY_PEEN_PEENETH0TX_Msk, /**< Ethernet transmit memory parity 
 216:D:\Naukowe\BLDC_workspace\PWM_from_ex\Libraries\XMCLib\inc\xmc4_scu.h **** #endif
 217:D:\Naukowe\BLDC_workspace\PWM_from_ex\Libraries\XMCLib\inc\xmc4_scu.h **** #if defined(SCU_PARITY_PEEN_PEENETH0RX_Msk)
 218:D:\Naukowe\BLDC_workspace\PWM_from_ex\Libraries\XMCLib\inc\xmc4_scu.h ****   XMC_SCU_PARITY_ETH_RXMEM  = SCU_PARITY_PEEN_PEENETH0RX_Msk, /**< Ethernet receive memory parity e
 219:D:\Naukowe\BLDC_workspace\PWM_from_ex\Libraries\XMCLib\inc\xmc4_scu.h **** #endif
 220:D:\Naukowe\BLDC_workspace\PWM_from_ex\Libraries\XMCLib\inc\xmc4_scu.h **** #if defined(SCU_PARITY_PEEN_PEENSD0_Msk)
 221:D:\Naukowe\BLDC_workspace\PWM_from_ex\Libraries\XMCLib\inc\xmc4_scu.h ****   XMC_SCU_PARITY_SDMMC_MEM0 = SCU_PARITY_PEEN_PEENSD0_Msk, /**< SDMMC Memory-0 parity error trap. *
 222:D:\Naukowe\BLDC_workspace\PWM_from_ex\Libraries\XMCLib\inc\xmc4_scu.h **** #endif
 223:D:\Naukowe\BLDC_workspace\PWM_from_ex\Libraries\XMCLib\inc\xmc4_scu.h **** #if defined(SCU_PARITY_PEEN_PEENSD1_Msk)
 224:D:\Naukowe\BLDC_workspace\PWM_from_ex\Libraries\XMCLib\inc\xmc4_scu.h ****   XMC_SCU_PARITY_SDMMC_MEM1 = SCU_PARITY_PEEN_PEENSD1_Msk, /**< SDMMC Memory-1 parity error trap. *
 225:D:\Naukowe\BLDC_workspace\PWM_from_ex\Libraries\XMCLib\inc\xmc4_scu.h **** #endif
 226:D:\Naukowe\BLDC_workspace\PWM_from_ex\Libraries\XMCLib\inc\xmc4_scu.h **** } XMC_SCU_PARITY_t;
 227:D:\Naukowe\BLDC_workspace\PWM_from_ex\Libraries\XMCLib\inc\xmc4_scu.h **** 
 228:D:\Naukowe\BLDC_workspace\PWM_from_ex\Libraries\XMCLib\inc\xmc4_scu.h **** /**
 229:D:\Naukowe\BLDC_workspace\PWM_from_ex\Libraries\XMCLib\inc\xmc4_scu.h ****  *  Defines the different causes for last reset. The cause of the last reset gets automatically sto
 230:D:\Naukowe\BLDC_workspace\PWM_from_ex\Libraries\XMCLib\inc\xmc4_scu.h ****  *  the \a SCU_RSTSTAT register and can be checked by user software to determine the state of the s
 231:D:\Naukowe\BLDC_workspace\PWM_from_ex\Libraries\XMCLib\inc\xmc4_scu.h ****  *  purpose. All the enum items are tabulated as per bits present in \a SCU_RSTSTAT register.
 232:D:\Naukowe\BLDC_workspace\PWM_from_ex\Libraries\XMCLib\inc\xmc4_scu.h ****  *  Use type \a XMC_SCU_RESET_REASON_t for accessing these enum parameters.
 233:D:\Naukowe\BLDC_workspace\PWM_from_ex\Libraries\XMCLib\inc\xmc4_scu.h ****  */
 234:D:\Naukowe\BLDC_workspace\PWM_from_ex\Libraries\XMCLib\inc\xmc4_scu.h **** typedef enum XMC_SCU_RESET_REASON
 235:D:\Naukowe\BLDC_workspace\PWM_from_ex\Libraries\XMCLib\inc\xmc4_scu.h **** {
 236:D:\Naukowe\BLDC_workspace\PWM_from_ex\Libraries\XMCLib\inc\xmc4_scu.h ****   XMC_SCU_RESET_REASON_PORST        = (1UL << SCU_RESET_RSTSTAT_RSTSTAT_Pos), /**< Reset due to Pow
 237:D:\Naukowe\BLDC_workspace\PWM_from_ex\Libraries\XMCLib\inc\xmc4_scu.h ****   XMC_SCU_RESET_REASON_SWD          = (2UL << SCU_RESET_RSTSTAT_RSTSTAT_Pos), /**< Reset due to Ser
 238:D:\Naukowe\BLDC_workspace\PWM_from_ex\Libraries\XMCLib\inc\xmc4_scu.h ****   XMC_SCU_RESET_REASON_PV           = (4UL << SCU_RESET_RSTSTAT_RSTSTAT_Pos), /**< Reset due to Pow
 239:D:\Naukowe\BLDC_workspace\PWM_from_ex\Libraries\XMCLib\inc\xmc4_scu.h ****   XMC_SCU_RESET_REASON_SW           = (8UL << SCU_RESET_RSTSTAT_RSTSTAT_Pos), /**< Reset due to Sof
 240:D:\Naukowe\BLDC_workspace\PWM_from_ex\Libraries\XMCLib\inc\xmc4_scu.h ****   XMC_SCU_RESET_REASON_LOCKUP       = (16UL << SCU_RESET_RSTSTAT_RSTSTAT_Pos), /**< Reset due to re
 241:D:\Naukowe\BLDC_workspace\PWM_from_ex\Libraries\XMCLib\inc\xmc4_scu.h ****   XMC_SCU_RESET_REASON_WATCHDOG     = (32UL << SCU_RESET_RSTSTAT_RSTSTAT_Pos), /**< Reset due to Wa
 242:D:\Naukowe\BLDC_workspace\PWM_from_ex\Libraries\XMCLib\inc\xmc4_scu.h ****   XMC_SCU_RESET_REASON_PARITY_ERROR = (128UL << SCU_RESET_RSTSTAT_RSTSTAT_Pos), /**< Reset due to r
 243:D:\Naukowe\BLDC_workspace\PWM_from_ex\Libraries\XMCLib\inc\xmc4_scu.h **** } XMC_SCU_RESET_REASON_t;
 244:D:\Naukowe\BLDC_workspace\PWM_from_ex\Libraries\XMCLib\inc\xmc4_scu.h **** 
 245:D:\Naukowe\BLDC_workspace\PWM_from_ex\Libraries\XMCLib\inc\xmc4_scu.h **** /**
 246:D:\Naukowe\BLDC_workspace\PWM_from_ex\Libraries\XMCLib\inc\xmc4_scu.h ****  *  Defines enumerations for events which can lead to interrupt. These enumeration values represent
 247:D:\Naukowe\BLDC_workspace\PWM_from_ex\Libraries\XMCLib\inc\xmc4_scu.h ****  * status of one of the bits in \a SRSTAT register. 
 248:D:\Naukowe\BLDC_workspace\PWM_from_ex\Libraries\XMCLib\inc\xmc4_scu.h ****  *  Use type \a XMC_SCU_INTERRUPT_EVENT_t for accessing these enum parameters.
 249:D:\Naukowe\BLDC_workspace\PWM_from_ex\Libraries\XMCLib\inc\xmc4_scu.h ****  */
 250:D:\Naukowe\BLDC_workspace\PWM_from_ex\Libraries\XMCLib\inc\xmc4_scu.h **** typedef uint32_t XMC_SCU_INTERRUPT_EVENT_t;
 251:D:\Naukowe\BLDC_workspace\PWM_from_ex\Libraries\XMCLib\inc\xmc4_scu.h **** 
 252:D:\Naukowe\BLDC_workspace\PWM_from_ex\Libraries\XMCLib\inc\xmc4_scu.h ****  
 253:D:\Naukowe\BLDC_workspace\PWM_from_ex\Libraries\XMCLib\inc\xmc4_scu.h **** /**
 254:D:\Naukowe\BLDC_workspace\PWM_from_ex\Libraries\XMCLib\inc\xmc4_scu.h ****  *  Defines enumeration for the events that can generate non maskable interrupt(NMI).
 255:D:\Naukowe\BLDC_workspace\PWM_from_ex\Libraries\XMCLib\inc\xmc4_scu.h ****  *  The NMI generation can be enabled with \a NMIREQEN register. The event will be reflected in \a 
 256:D:\Naukowe\BLDC_workspace\PWM_from_ex\Libraries\XMCLib\inc\xmc4_scu.h ****  *  mirrored in the TRAPSTAT register. These enums can be used to configure NMI request generation 
 257:D:\Naukowe\BLDC_workspace\PWM_from_ex\Libraries\XMCLib\inc\xmc4_scu.h ****  *  NMIREQEN register.  Once configured, these events can generate non maskable interrupt.
 258:D:\Naukowe\BLDC_workspace\PWM_from_ex\Libraries\XMCLib\inc\xmc4_scu.h ****  *  All the enum items are tabulated as per bits present in \a NMIREQEN register.
 259:D:\Naukowe\BLDC_workspace\PWM_from_ex\Libraries\XMCLib\inc\xmc4_scu.h ****  *  Use type \a XMC_SCU_NMIREQ_t for accessing these enum parameters.
 260:D:\Naukowe\BLDC_workspace\PWM_from_ex\Libraries\XMCLib\inc\xmc4_scu.h ****  */
 261:D:\Naukowe\BLDC_workspace\PWM_from_ex\Libraries\XMCLib\inc\xmc4_scu.h **** typedef enum XMC_SCU_NMIREQ
 262:D:\Naukowe\BLDC_workspace\PWM_from_ex\Libraries\XMCLib\inc\xmc4_scu.h **** {
 263:D:\Naukowe\BLDC_workspace\PWM_from_ex\Libraries\XMCLib\inc\xmc4_scu.h ****   XMC_SCU_NMIREQ_WDT_WARN = SCU_INTERRUPT_NMIREQEN_PRWARN_Msk, /**< Watchdog timer Pre-Warning even
 264:D:\Naukowe\BLDC_workspace\PWM_from_ex\Libraries\XMCLib\inc\xmc4_scu.h ****   XMC_SCU_NMIREQ_RTC_PI   = SCU_INTERRUPT_NMIREQEN_PI_Msk,     /**< RTC Periodic event */ 
 265:D:\Naukowe\BLDC_workspace\PWM_from_ex\Libraries\XMCLib\inc\xmc4_scu.h ****   XMC_SCU_NMIREQ_RTC_AI   = SCU_INTERRUPT_NMIREQEN_AI_Msk,     /**< RTC Alarm event */ 
 266:D:\Naukowe\BLDC_workspace\PWM_from_ex\Libraries\XMCLib\inc\xmc4_scu.h ****   XMC_SCU_NMIREQ_ERU0_0   = SCU_INTERRUPT_NMIREQEN_ERU00_Msk,  /**< Channel 0 event of ERU0 */  
 267:D:\Naukowe\BLDC_workspace\PWM_from_ex\Libraries\XMCLib\inc\xmc4_scu.h ****   XMC_SCU_NMIREQ_ERU0_1   = SCU_INTERRUPT_NMIREQEN_ERU01_Msk,  /**< Channel 1 event of ERU0 */ 
 268:D:\Naukowe\BLDC_workspace\PWM_from_ex\Libraries\XMCLib\inc\xmc4_scu.h ****   XMC_SCU_NMIREQ_ERU0_2   = SCU_INTERRUPT_NMIREQEN_ERU02_Msk,  /**< Channel 2 event of ERU0 */ 
 269:D:\Naukowe\BLDC_workspace\PWM_from_ex\Libraries\XMCLib\inc\xmc4_scu.h ****   XMC_SCU_NMIREQ_ERU0_3   = SCU_INTERRUPT_NMIREQEN_ERU03_Msk   /**< Channel 3 event of ERU0 */ 
 270:D:\Naukowe\BLDC_workspace\PWM_from_ex\Libraries\XMCLib\inc\xmc4_scu.h **** } XMC_SCU_NMIREQ_t;
 271:D:\Naukowe\BLDC_workspace\PWM_from_ex\Libraries\XMCLib\inc\xmc4_scu.h ****   
 272:D:\Naukowe\BLDC_workspace\PWM_from_ex\Libraries\XMCLib\inc\xmc4_scu.h **** 
 273:D:\Naukowe\BLDC_workspace\PWM_from_ex\Libraries\XMCLib\inc\xmc4_scu.h **** /**
 274:D:\Naukowe\BLDC_workspace\PWM_from_ex\Libraries\XMCLib\inc\xmc4_scu.h ****  *  Defines enumeration representing different peripheral reset bits in the \a PRSTAT registers.
 275:D:\Naukowe\BLDC_workspace\PWM_from_ex\Libraries\XMCLib\inc\xmc4_scu.h ****  *  All the enum items are tabulated as per bits present in \a PRSTAT0,  \a PRSTAT1,  \a PRSTAT2,
 276:D:\Naukowe\BLDC_workspace\PWM_from_ex\Libraries\XMCLib\inc\xmc4_scu.h ****  *  \a PRSTAT3 registers. Use type \a XMC_SCU_PERIPHERAL_RESET_t for accessing these enum parameter
 277:D:\Naukowe\BLDC_workspace\PWM_from_ex\Libraries\XMCLib\inc\xmc4_scu.h ****  *  Note: Release of reset should be prevented when the peripheral clock is gated in cases where ke
 278:D:\Naukowe\BLDC_workspace\PWM_from_ex\Libraries\XMCLib\inc\xmc4_scu.h ****  *  clock and bus interface clocks are shared, in order to avoid system hang-up.
 279:D:\Naukowe\BLDC_workspace\PWM_from_ex\Libraries\XMCLib\inc\xmc4_scu.h ****  */
 280:D:\Naukowe\BLDC_workspace\PWM_from_ex\Libraries\XMCLib\inc\xmc4_scu.h **** typedef enum XMC_SCU_PERIPHERAL_RESET
 281:D:\Naukowe\BLDC_workspace\PWM_from_ex\Libraries\XMCLib\inc\xmc4_scu.h **** {
 282:D:\Naukowe\BLDC_workspace\PWM_from_ex\Libraries\XMCLib\inc\xmc4_scu.h ****   XMC_SCU_PERIPHERAL_RESET_VADC   = SCU_RESET_PRSTAT0_VADCRS_Msk,   /**< VADC reset. */ 
 283:D:\Naukowe\BLDC_workspace\PWM_from_ex\Libraries\XMCLib\inc\xmc4_scu.h **** #if defined(DSD)
 284:D:\Naukowe\BLDC_workspace\PWM_from_ex\Libraries\XMCLib\inc\xmc4_scu.h ****   XMC_SCU_PERIPHERAL_RESET_DSD    = SCU_RESET_PRSTAT0_DSDRS_Msk,    /**< DSD reset. */
 285:D:\Naukowe\BLDC_workspace\PWM_from_ex\Libraries\XMCLib\inc\xmc4_scu.h **** #endif
 286:D:\Naukowe\BLDC_workspace\PWM_from_ex\Libraries\XMCLib\inc\xmc4_scu.h ****   XMC_SCU_PERIPHERAL_RESET_CCU40  = SCU_RESET_PRSTAT0_CCU40RS_Msk,  /**< CCU40 reset. */
 287:D:\Naukowe\BLDC_workspace\PWM_from_ex\Libraries\XMCLib\inc\xmc4_scu.h **** #if defined(CCU41)
 288:D:\Naukowe\BLDC_workspace\PWM_from_ex\Libraries\XMCLib\inc\xmc4_scu.h ****   XMC_SCU_PERIPHERAL_RESET_CCU41  = SCU_RESET_PRSTAT0_CCU41RS_Msk,  /**< CCU41 reset. */
 289:D:\Naukowe\BLDC_workspace\PWM_from_ex\Libraries\XMCLib\inc\xmc4_scu.h **** #endif  
 290:D:\Naukowe\BLDC_workspace\PWM_from_ex\Libraries\XMCLib\inc\xmc4_scu.h **** #if defined(CCU42)
 291:D:\Naukowe\BLDC_workspace\PWM_from_ex\Libraries\XMCLib\inc\xmc4_scu.h ****   XMC_SCU_PERIPHERAL_RESET_CCU42  = SCU_RESET_PRSTAT0_CCU42RS_Msk,  /**< CCU42 reset. */
 292:D:\Naukowe\BLDC_workspace\PWM_from_ex\Libraries\XMCLib\inc\xmc4_scu.h **** #endif
 293:D:\Naukowe\BLDC_workspace\PWM_from_ex\Libraries\XMCLib\inc\xmc4_scu.h **** #if defined(CCU80)
 294:D:\Naukowe\BLDC_workspace\PWM_from_ex\Libraries\XMCLib\inc\xmc4_scu.h ****   XMC_SCU_PERIPHERAL_RESET_CCU80  = SCU_RESET_PRSTAT0_CCU80RS_Msk,  /**< CCU80 reset. */
 295:D:\Naukowe\BLDC_workspace\PWM_from_ex\Libraries\XMCLib\inc\xmc4_scu.h **** #endif  
 296:D:\Naukowe\BLDC_workspace\PWM_from_ex\Libraries\XMCLib\inc\xmc4_scu.h **** #if defined(CCU81)
 297:D:\Naukowe\BLDC_workspace\PWM_from_ex\Libraries\XMCLib\inc\xmc4_scu.h ****   XMC_SCU_PERIPHERAL_RESET_CCU81  = SCU_RESET_PRSTAT0_CCU81RS_Msk,  /**< CCU81 reset. */
 298:D:\Naukowe\BLDC_workspace\PWM_from_ex\Libraries\XMCLib\inc\xmc4_scu.h **** #endif
 299:D:\Naukowe\BLDC_workspace\PWM_from_ex\Libraries\XMCLib\inc\xmc4_scu.h **** #if defined(POSIF0)
 300:D:\Naukowe\BLDC_workspace\PWM_from_ex\Libraries\XMCLib\inc\xmc4_scu.h ****   XMC_SCU_PERIPHERAL_RESET_POSIF0 = SCU_RESET_PRSTAT0_POSIF0RS_Msk, /**< POSIF0 reset. */
 301:D:\Naukowe\BLDC_workspace\PWM_from_ex\Libraries\XMCLib\inc\xmc4_scu.h **** #endif  
 302:D:\Naukowe\BLDC_workspace\PWM_from_ex\Libraries\XMCLib\inc\xmc4_scu.h **** #if defined(POSIF1)
 303:D:\Naukowe\BLDC_workspace\PWM_from_ex\Libraries\XMCLib\inc\xmc4_scu.h ****   XMC_SCU_PERIPHERAL_RESET_POSIF1 = SCU_RESET_PRSTAT0_POSIF1RS_Msk, /**< POSIF1 reset.*/
 304:D:\Naukowe\BLDC_workspace\PWM_from_ex\Libraries\XMCLib\inc\xmc4_scu.h **** #endif
 305:D:\Naukowe\BLDC_workspace\PWM_from_ex\Libraries\XMCLib\inc\xmc4_scu.h ****   XMC_SCU_PERIPHERAL_RESET_USIC0  = SCU_RESET_PRSTAT0_USIC0RS_Msk,  /**< USIC0 reset. */
 306:D:\Naukowe\BLDC_workspace\PWM_from_ex\Libraries\XMCLib\inc\xmc4_scu.h ****   XMC_SCU_PERIPHERAL_RESET_ERU1   = SCU_RESET_PRSTAT0_ERU1RS_Msk,   /**< ERU1 reset. */
 307:D:\Naukowe\BLDC_workspace\PWM_from_ex\Libraries\XMCLib\inc\xmc4_scu.h **** #if defined(HRPWM0)
 308:D:\Naukowe\BLDC_workspace\PWM_from_ex\Libraries\XMCLib\inc\xmc4_scu.h ****   XMC_SCU_PERIPHERAL_RESET_HRPWM0 = SCU_RESET_PRSTAT0_HRPWM0RS_Msk,  /**< HRPWM0 reset. */
 309:D:\Naukowe\BLDC_workspace\PWM_from_ex\Libraries\XMCLib\inc\xmc4_scu.h **** #endif
 310:D:\Naukowe\BLDC_workspace\PWM_from_ex\Libraries\XMCLib\inc\xmc4_scu.h **** #if defined(CCU43)
 311:D:\Naukowe\BLDC_workspace\PWM_from_ex\Libraries\XMCLib\inc\xmc4_scu.h ****   XMC_SCU_PERIPHERAL_RESET_CCU43  = (SCU_RESET_PRSTAT1_CCU43RS_Msk | 0x10000000UL),   /**< CCU43 re
 312:D:\Naukowe\BLDC_workspace\PWM_from_ex\Libraries\XMCLib\inc\xmc4_scu.h **** #endif
 313:D:\Naukowe\BLDC_workspace\PWM_from_ex\Libraries\XMCLib\inc\xmc4_scu.h **** #if defined(LEDTS0)
 314:D:\Naukowe\BLDC_workspace\PWM_from_ex\Libraries\XMCLib\inc\xmc4_scu.h ****   XMC_SCU_PERIPHERAL_RESET_LEDTS0 = (SCU_RESET_PRSTAT1_LEDTSCU0RS_Msk | 0x10000000UL), /**< LEDTS0 
 315:D:\Naukowe\BLDC_workspace\PWM_from_ex\Libraries\XMCLib\inc\xmc4_scu.h **** #endif  
 316:D:\Naukowe\BLDC_workspace\PWM_from_ex\Libraries\XMCLib\inc\xmc4_scu.h **** #if defined(CAN)
 317:D:\Naukowe\BLDC_workspace\PWM_from_ex\Libraries\XMCLib\inc\xmc4_scu.h ****   XMC_SCU_PERIPHERAL_RESET_MCAN   = (SCU_RESET_PRSTAT1_MCAN0RS_Msk | 0x10000000UL), /**< MCAN reset
 318:D:\Naukowe\BLDC_workspace\PWM_from_ex\Libraries\XMCLib\inc\xmc4_scu.h **** #endif  
 319:D:\Naukowe\BLDC_workspace\PWM_from_ex\Libraries\XMCLib\inc\xmc4_scu.h **** #if defined(DAC)  
 320:D:\Naukowe\BLDC_workspace\PWM_from_ex\Libraries\XMCLib\inc\xmc4_scu.h ****   XMC_SCU_PERIPHERAL_RESET_DAC    = (SCU_RESET_PRSTAT1_DACRS_Msk | 0x10000000UL),    /**< DAC reset
 321:D:\Naukowe\BLDC_workspace\PWM_from_ex\Libraries\XMCLib\inc\xmc4_scu.h **** #endif  
 322:D:\Naukowe\BLDC_workspace\PWM_from_ex\Libraries\XMCLib\inc\xmc4_scu.h **** #if defined(SDMMC)
 323:D:\Naukowe\BLDC_workspace\PWM_from_ex\Libraries\XMCLib\inc\xmc4_scu.h ****   XMC_SCU_PERIPHERAL_RESET_SDMMC  = (SCU_RESET_PRSTAT1_MMCIRS_Msk | 0x10000000UL),     /**< SDMMC r
 324:D:\Naukowe\BLDC_workspace\PWM_from_ex\Libraries\XMCLib\inc\xmc4_scu.h **** #endif
 325:D:\Naukowe\BLDC_workspace\PWM_from_ex\Libraries\XMCLib\inc\xmc4_scu.h **** #if defined(USIC1)
 326:D:\Naukowe\BLDC_workspace\PWM_from_ex\Libraries\XMCLib\inc\xmc4_scu.h ****   XMC_SCU_PERIPHERAL_RESET_USIC1  = (SCU_RESET_PRSTAT1_USIC1RS_Msk | 0x10000000UL),    /**< USIC1 r
 327:D:\Naukowe\BLDC_workspace\PWM_from_ex\Libraries\XMCLib\inc\xmc4_scu.h **** #endif  
 328:D:\Naukowe\BLDC_workspace\PWM_from_ex\Libraries\XMCLib\inc\xmc4_scu.h **** #if defined(USIC2)
 329:D:\Naukowe\BLDC_workspace\PWM_from_ex\Libraries\XMCLib\inc\xmc4_scu.h ****   XMC_SCU_PERIPHERAL_RESET_USIC2  = (SCU_RESET_PRSTAT1_USIC2RS_Msk | 0x10000000UL),    /**< USIC2 r
 330:D:\Naukowe\BLDC_workspace\PWM_from_ex\Libraries\XMCLib\inc\xmc4_scu.h **** #endif
 331:D:\Naukowe\BLDC_workspace\PWM_from_ex\Libraries\XMCLib\inc\xmc4_scu.h ****   XMC_SCU_PERIPHERAL_RESET_PORTS  = (SCU_RESET_PRSTAT1_PPORTSRS_Msk | 0x10000000UL),   /**< PORTS r
 332:D:\Naukowe\BLDC_workspace\PWM_from_ex\Libraries\XMCLib\inc\xmc4_scu.h ****   XMC_SCU_PERIPHERAL_RESET_WDT    = (SCU_RESET_PRSTAT2_WDTRS_Msk | 0x20000000UL),      /**< WDT res
 333:D:\Naukowe\BLDC_workspace\PWM_from_ex\Libraries\XMCLib\inc\xmc4_scu.h **** #if defined(ETH0)
 334:D:\Naukowe\BLDC_workspace\PWM_from_ex\Libraries\XMCLib\inc\xmc4_scu.h ****   XMC_SCU_PERIPHERAL_RESET_ETH0   = (SCU_RESET_PRSTAT2_ETH0RS_Msk | 0x20000000UL),     /**< ETH0 re
 335:D:\Naukowe\BLDC_workspace\PWM_from_ex\Libraries\XMCLib\inc\xmc4_scu.h **** #endif
 336:D:\Naukowe\BLDC_workspace\PWM_from_ex\Libraries\XMCLib\inc\xmc4_scu.h ****   XMC_SCU_PERIPHERAL_RESET_GPDMA0 = (SCU_RESET_PRSTAT2_DMA0RS_Msk | 0x20000000UL),     /**< DMA0 re
 337:D:\Naukowe\BLDC_workspace\PWM_from_ex\Libraries\XMCLib\inc\xmc4_scu.h **** #if defined(GPDMA1)
 338:D:\Naukowe\BLDC_workspace\PWM_from_ex\Libraries\XMCLib\inc\xmc4_scu.h ****   XMC_SCU_PERIPHERAL_RESET_GPDMA1 = (SCU_RESET_PRSTAT2_DMA1RS_Msk | 0x20000000UL),     /**< DMA1 re
 339:D:\Naukowe\BLDC_workspace\PWM_from_ex\Libraries\XMCLib\inc\xmc4_scu.h **** #endif
 340:D:\Naukowe\BLDC_workspace\PWM_from_ex\Libraries\XMCLib\inc\xmc4_scu.h **** #if defined(FCE)
 341:D:\Naukowe\BLDC_workspace\PWM_from_ex\Libraries\XMCLib\inc\xmc4_scu.h ****   XMC_SCU_PERIPHERAL_RESET_FCE    = (SCU_RESET_PRSTAT2_FCERS_Msk | 0x20000000UL),      /**< FCE res
 342:D:\Naukowe\BLDC_workspace\PWM_from_ex\Libraries\XMCLib\inc\xmc4_scu.h **** #endif
 343:D:\Naukowe\BLDC_workspace\PWM_from_ex\Libraries\XMCLib\inc\xmc4_scu.h **** #if defined(USB0)  
 344:D:\Naukowe\BLDC_workspace\PWM_from_ex\Libraries\XMCLib\inc\xmc4_scu.h ****   XMC_SCU_PERIPHERAL_RESET_USB0   = (SCU_RESET_PRSTAT2_USBRS_Msk | 0x20000000UL),      /**< USB0 re
 345:D:\Naukowe\BLDC_workspace\PWM_from_ex\Libraries\XMCLib\inc\xmc4_scu.h **** #endif  
 346:D:\Naukowe\BLDC_workspace\PWM_from_ex\Libraries\XMCLib\inc\xmc4_scu.h **** #if defined(ECAT0)  
 347:D:\Naukowe\BLDC_workspace\PWM_from_ex\Libraries\XMCLib\inc\xmc4_scu.h ****   XMC_SCU_PERIPHERAL_RESET_ECAT0  = (SCU_RESET_PRSTAT2_ECAT0RS_Msk | 0x20000000UL),      /**< ECAT0
 348:D:\Naukowe\BLDC_workspace\PWM_from_ex\Libraries\XMCLib\inc\xmc4_scu.h **** #endif  
 349:D:\Naukowe\BLDC_workspace\PWM_from_ex\Libraries\XMCLib\inc\xmc4_scu.h **** #if defined(EBU)
 350:D:\Naukowe\BLDC_workspace\PWM_from_ex\Libraries\XMCLib\inc\xmc4_scu.h ****   XMC_SCU_PERIPHERAL_RESET_EBU    = (SCU_RESET_PRSTAT3_EBURS_Msk | 0x30000000UL)       /**< EBU res
 351:D:\Naukowe\BLDC_workspace\PWM_from_ex\Libraries\XMCLib\inc\xmc4_scu.h **** #endif
 352:D:\Naukowe\BLDC_workspace\PWM_from_ex\Libraries\XMCLib\inc\xmc4_scu.h **** } XMC_SCU_PERIPHERAL_RESET_t;
 353:D:\Naukowe\BLDC_workspace\PWM_from_ex\Libraries\XMCLib\inc\xmc4_scu.h **** 
 354:D:\Naukowe\BLDC_workspace\PWM_from_ex\Libraries\XMCLib\inc\xmc4_scu.h **** /**
 355:D:\Naukowe\BLDC_workspace\PWM_from_ex\Libraries\XMCLib\inc\xmc4_scu.h ****  *  Defines enumerations for disabling the clocks sources of peripherals. Disabling of the peripher
 356:D:\Naukowe\BLDC_workspace\PWM_from_ex\Libraries\XMCLib\inc\xmc4_scu.h ****  *  clock is configured via the \a CLKCLR registers.
 357:D:\Naukowe\BLDC_workspace\PWM_from_ex\Libraries\XMCLib\inc\xmc4_scu.h ****  *  Use type \a XMC_SCU_PERIPHERAL_CLOCK_t for accessing these enum parameters.
 358:D:\Naukowe\BLDC_workspace\PWM_from_ex\Libraries\XMCLib\inc\xmc4_scu.h ****  */
 359:D:\Naukowe\BLDC_workspace\PWM_from_ex\Libraries\XMCLib\inc\xmc4_scu.h **** typedef enum XMC_SCU_CLOCK
 360:D:\Naukowe\BLDC_workspace\PWM_from_ex\Libraries\XMCLib\inc\xmc4_scu.h **** {
 361:D:\Naukowe\BLDC_workspace\PWM_from_ex\Libraries\XMCLib\inc\xmc4_scu.h ****   XMC_SCU_CLOCK_USB = SCU_CLK_CLKCLR_USBCDI_Msk, /**< USB module clock. */
 362:D:\Naukowe\BLDC_workspace\PWM_from_ex\Libraries\XMCLib\inc\xmc4_scu.h **** #if defined(SDMMC)
 363:D:\Naukowe\BLDC_workspace\PWM_from_ex\Libraries\XMCLib\inc\xmc4_scu.h ****   XMC_SCU_CLOCK_MMC = SCU_CLK_CLKCLR_MMCCDI_Msk, /**< MMC module clock. */
 364:D:\Naukowe\BLDC_workspace\PWM_from_ex\Libraries\XMCLib\inc\xmc4_scu.h **** #endif
 365:D:\Naukowe\BLDC_workspace\PWM_from_ex\Libraries\XMCLib\inc\xmc4_scu.h **** #if defined(ETH0)
 366:D:\Naukowe\BLDC_workspace\PWM_from_ex\Libraries\XMCLib\inc\xmc4_scu.h ****   XMC_SCU_CLOCK_ETH = SCU_CLK_CLKCLR_ETH0CDI_Msk, /**< Ethernet module clock. */
 367:D:\Naukowe\BLDC_workspace\PWM_from_ex\Libraries\XMCLib\inc\xmc4_scu.h **** #endif
 368:D:\Naukowe\BLDC_workspace\PWM_from_ex\Libraries\XMCLib\inc\xmc4_scu.h **** #if defined(EBU)
 369:D:\Naukowe\BLDC_workspace\PWM_from_ex\Libraries\XMCLib\inc\xmc4_scu.h ****   XMC_SCU_CLOCK_EBU = SCU_CLK_CLKCLR_EBUCDI_Msk, /**< EBU module clock. */
 370:D:\Naukowe\BLDC_workspace\PWM_from_ex\Libraries\XMCLib\inc\xmc4_scu.h **** #endif
 371:D:\Naukowe\BLDC_workspace\PWM_from_ex\Libraries\XMCLib\inc\xmc4_scu.h ****   XMC_SCU_CLOCK_CCU = SCU_CLK_CLKCLR_CCUCDI_Msk, /**< CCU module clock. */
 372:D:\Naukowe\BLDC_workspace\PWM_from_ex\Libraries\XMCLib\inc\xmc4_scu.h ****   XMC_SCU_CLOCK_WDT = SCU_CLK_CLKCLR_WDTCDI_Msk  /**< WDT module clock. */
 373:D:\Naukowe\BLDC_workspace\PWM_from_ex\Libraries\XMCLib\inc\xmc4_scu.h **** } XMC_SCU_CLOCK_t;
 374:D:\Naukowe\BLDC_workspace\PWM_from_ex\Libraries\XMCLib\inc\xmc4_scu.h **** 
 375:D:\Naukowe\BLDC_workspace\PWM_from_ex\Libraries\XMCLib\inc\xmc4_scu.h **** #if(UC_SERIES != XMC45)
 376:D:\Naukowe\BLDC_workspace\PWM_from_ex\Libraries\XMCLib\inc\xmc4_scu.h **** /**
 377:D:\Naukowe\BLDC_workspace\PWM_from_ex\Libraries\XMCLib\inc\xmc4_scu.h ****  * Defines enumeration for peripherals that support clock gating. 
 378:D:\Naukowe\BLDC_workspace\PWM_from_ex\Libraries\XMCLib\inc\xmc4_scu.h ****  * The enumerations can be used for gating or ungating the peripheral clocks.
 379:D:\Naukowe\BLDC_workspace\PWM_from_ex\Libraries\XMCLib\inc\xmc4_scu.h ****  * All the enum items are tabulated as per bits present in \a CGATSTAT0 register.
 380:D:\Naukowe\BLDC_workspace\PWM_from_ex\Libraries\XMCLib\inc\xmc4_scu.h ****  * Use type \a XMC_SCU_PERIPHERAL_CLOCK_t for accessing these enum parameters.
 381:D:\Naukowe\BLDC_workspace\PWM_from_ex\Libraries\XMCLib\inc\xmc4_scu.h ****  */
 382:D:\Naukowe\BLDC_workspace\PWM_from_ex\Libraries\XMCLib\inc\xmc4_scu.h **** typedef enum XMC_SCU_PERIPHERAL_CLOCK
 383:D:\Naukowe\BLDC_workspace\PWM_from_ex\Libraries\XMCLib\inc\xmc4_scu.h **** {
 384:D:\Naukowe\BLDC_workspace\PWM_from_ex\Libraries\XMCLib\inc\xmc4_scu.h ****   XMC_SCU_PERIPHERAL_CLOCK_VADC   = SCU_CLK_CGATSTAT0_VADC_Msk,  /**< VADC peripheral gating. */
 385:D:\Naukowe\BLDC_workspace\PWM_from_ex\Libraries\XMCLib\inc\xmc4_scu.h **** #if defined(DSD)
 386:D:\Naukowe\BLDC_workspace\PWM_from_ex\Libraries\XMCLib\inc\xmc4_scu.h ****   XMC_SCU_PERIPHERAL_CLOCK_DSD    = SCU_CLK_CGATSTAT0_DSD_Msk,   /**< DSD peripheral gating. */
 387:D:\Naukowe\BLDC_workspace\PWM_from_ex\Libraries\XMCLib\inc\xmc4_scu.h **** #endif
 388:D:\Naukowe\BLDC_workspace\PWM_from_ex\Libraries\XMCLib\inc\xmc4_scu.h ****   XMC_SCU_PERIPHERAL_CLOCK_CCU40  = SCU_CLK_CGATSTAT0_CCU40_Msk,  /**< CCU40 peripheral gating. */
 389:D:\Naukowe\BLDC_workspace\PWM_from_ex\Libraries\XMCLib\inc\xmc4_scu.h **** #if defined(CCU41)
 390:D:\Naukowe\BLDC_workspace\PWM_from_ex\Libraries\XMCLib\inc\xmc4_scu.h ****   XMC_SCU_PERIPHERAL_CLOCK_CCU41  = SCU_CLK_CGATSTAT0_CCU41_Msk,  /**< CCU41 peripheral gating. */
 391:D:\Naukowe\BLDC_workspace\PWM_from_ex\Libraries\XMCLib\inc\xmc4_scu.h **** #endif  
 392:D:\Naukowe\BLDC_workspace\PWM_from_ex\Libraries\XMCLib\inc\xmc4_scu.h **** #if defined(CCU42)
 393:D:\Naukowe\BLDC_workspace\PWM_from_ex\Libraries\XMCLib\inc\xmc4_scu.h ****   XMC_SCU_PERIPHERAL_CLOCK_CCU42  = SCU_CLK_CGATSTAT0_CCU42_Msk,  /**< CCU42 peripheral gating. */
 394:D:\Naukowe\BLDC_workspace\PWM_from_ex\Libraries\XMCLib\inc\xmc4_scu.h **** #endif
 395:D:\Naukowe\BLDC_workspace\PWM_from_ex\Libraries\XMCLib\inc\xmc4_scu.h **** #if defined(CCU80)
 396:D:\Naukowe\BLDC_workspace\PWM_from_ex\Libraries\XMCLib\inc\xmc4_scu.h ****   XMC_SCU_PERIPHERAL_CLOCK_CCU80  = SCU_CLK_CGATSTAT0_CCU80_Msk,  /**< CCU80 peripheral gating. */
 397:D:\Naukowe\BLDC_workspace\PWM_from_ex\Libraries\XMCLib\inc\xmc4_scu.h **** #endif  
 398:D:\Naukowe\BLDC_workspace\PWM_from_ex\Libraries\XMCLib\inc\xmc4_scu.h **** #if defined(CCU81)
 399:D:\Naukowe\BLDC_workspace\PWM_from_ex\Libraries\XMCLib\inc\xmc4_scu.h ****   XMC_SCU_PERIPHERAL_CLOCK_CCU81  = SCU_CLK_CGATSTAT0_CCU81_Msk,  /**< CCU81 peripheral gating. */
 400:D:\Naukowe\BLDC_workspace\PWM_from_ex\Libraries\XMCLib\inc\xmc4_scu.h **** #endif
 401:D:\Naukowe\BLDC_workspace\PWM_from_ex\Libraries\XMCLib\inc\xmc4_scu.h **** #if defined(POSIF0)
 402:D:\Naukowe\BLDC_workspace\PWM_from_ex\Libraries\XMCLib\inc\xmc4_scu.h ****   XMC_SCU_PERIPHERAL_CLOCK_POSIF0 = SCU_CLK_CGATSTAT0_POSIF0_Msk,  /**< POSIF0 peripheral gating. *
 403:D:\Naukowe\BLDC_workspace\PWM_from_ex\Libraries\XMCLib\inc\xmc4_scu.h **** #endif  
 404:D:\Naukowe\BLDC_workspace\PWM_from_ex\Libraries\XMCLib\inc\xmc4_scu.h **** #if defined(POSIF1)
 405:D:\Naukowe\BLDC_workspace\PWM_from_ex\Libraries\XMCLib\inc\xmc4_scu.h ****   XMC_SCU_PERIPHERAL_CLOCK_POSIF1 = SCU_CLK_CGATSTAT0_POSIF1_Msk,   /**< POSIF1 peripheral gating. 
 406:D:\Naukowe\BLDC_workspace\PWM_from_ex\Libraries\XMCLib\inc\xmc4_scu.h **** #endif
 407:D:\Naukowe\BLDC_workspace\PWM_from_ex\Libraries\XMCLib\inc\xmc4_scu.h ****   XMC_SCU_PERIPHERAL_CLOCK_USIC0  = SCU_CLK_CGATSTAT0_USIC0_Msk,   /**< USIC0 peripheral gating. */
 408:D:\Naukowe\BLDC_workspace\PWM_from_ex\Libraries\XMCLib\inc\xmc4_scu.h ****   XMC_SCU_PERIPHERAL_CLOCK_ERU1   = SCU_CLK_CGATSTAT0_ERU1_Msk,    /**< ERU1 peripheral gating. */
 409:D:\Naukowe\BLDC_workspace\PWM_from_ex\Libraries\XMCLib\inc\xmc4_scu.h **** #if defined(HRPWM0)
 410:D:\Naukowe\BLDC_workspace\PWM_from_ex\Libraries\XMCLib\inc\xmc4_scu.h ****   XMC_SCU_PERIPHERAL_CLOCK_HRPWM0 = SCU_CLK_CGATSTAT0_HRPWM0_Msk,  /**< HRPWM0 peripheral gating. *
 411:D:\Naukowe\BLDC_workspace\PWM_from_ex\Libraries\XMCLib\inc\xmc4_scu.h **** #endif
 412:D:\Naukowe\BLDC_workspace\PWM_from_ex\Libraries\XMCLib\inc\xmc4_scu.h **** #if defined(CCU43)
 413:D:\Naukowe\BLDC_workspace\PWM_from_ex\Libraries\XMCLib\inc\xmc4_scu.h ****   XMC_SCU_PERIPHERAL_CLOCK_CCU43  = (SCU_CLK_CGATSTAT1_CCU43_Msk | 0x10000000UL),   /**< CCU43 peri
 414:D:\Naukowe\BLDC_workspace\PWM_from_ex\Libraries\XMCLib\inc\xmc4_scu.h **** #endif
 415:D:\Naukowe\BLDC_workspace\PWM_from_ex\Libraries\XMCLib\inc\xmc4_scu.h **** #if defined(LEDTS0)
 416:D:\Naukowe\BLDC_workspace\PWM_from_ex\Libraries\XMCLib\inc\xmc4_scu.h ****   XMC_SCU_PERIPHERAL_CLOCK_LEDTS0 = (SCU_CLK_CGATSTAT1_LEDTSCU0_Msk | 0x10000000UL), /**< LEDTS0 pe
 417:D:\Naukowe\BLDC_workspace\PWM_from_ex\Libraries\XMCLib\inc\xmc4_scu.h **** #endif  
 418:D:\Naukowe\BLDC_workspace\PWM_from_ex\Libraries\XMCLib\inc\xmc4_scu.h **** #if defined(CAN)
 419:D:\Naukowe\BLDC_workspace\PWM_from_ex\Libraries\XMCLib\inc\xmc4_scu.h ****   XMC_SCU_PERIPHERAL_CLOCK_MCAN   = (SCU_CLK_CGATSTAT1_MCAN0_Msk | 0x10000000UL),   /**< MCAN perip
 420:D:\Naukowe\BLDC_workspace\PWM_from_ex\Libraries\XMCLib\inc\xmc4_scu.h **** #endif
 421:D:\Naukowe\BLDC_workspace\PWM_from_ex\Libraries\XMCLib\inc\xmc4_scu.h **** #if defined(DAC)  
 422:D:\Naukowe\BLDC_workspace\PWM_from_ex\Libraries\XMCLib\inc\xmc4_scu.h ****   XMC_SCU_PERIPHERAL_CLOCK_DAC    = (SCU_CLK_CGATSTAT1_DAC_Msk | 0x10000000UL),     /**< DAC periph
 423:D:\Naukowe\BLDC_workspace\PWM_from_ex\Libraries\XMCLib\inc\xmc4_scu.h **** #endif  
 424:D:\Naukowe\BLDC_workspace\PWM_from_ex\Libraries\XMCLib\inc\xmc4_scu.h **** #if defined(SDMMC)
 425:D:\Naukowe\BLDC_workspace\PWM_from_ex\Libraries\XMCLib\inc\xmc4_scu.h ****   XMC_SCU_PERIPHERAL_CLOCK_SDMMC  = (SCU_CLK_CGATSTAT1_MMCI_Msk | 0x10000000UL),    /**< SDMMC peri
 426:D:\Naukowe\BLDC_workspace\PWM_from_ex\Libraries\XMCLib\inc\xmc4_scu.h **** #endif
 427:D:\Naukowe\BLDC_workspace\PWM_from_ex\Libraries\XMCLib\inc\xmc4_scu.h **** #if defined(USIC1)
 428:D:\Naukowe\BLDC_workspace\PWM_from_ex\Libraries\XMCLib\inc\xmc4_scu.h ****   XMC_SCU_PERIPHERAL_CLOCK_USIC1  = (SCU_CLK_CGATSTAT1_USIC1_Msk | 0x10000000UL),   /**< USIC1 peri
 429:D:\Naukowe\BLDC_workspace\PWM_from_ex\Libraries\XMCLib\inc\xmc4_scu.h **** #endif  
 430:D:\Naukowe\BLDC_workspace\PWM_from_ex\Libraries\XMCLib\inc\xmc4_scu.h **** #if defined(USIC2)
 431:D:\Naukowe\BLDC_workspace\PWM_from_ex\Libraries\XMCLib\inc\xmc4_scu.h ****   XMC_SCU_PERIPHERAL_CLOCK_USIC2  = (SCU_CLK_CGATSTAT1_USIC2_Msk | 0x10000000UL),    /**< USIC2 per
 432:D:\Naukowe\BLDC_workspace\PWM_from_ex\Libraries\XMCLib\inc\xmc4_scu.h **** #endif
 433:D:\Naukowe\BLDC_workspace\PWM_from_ex\Libraries\XMCLib\inc\xmc4_scu.h ****   XMC_SCU_PERIPHERAL_CLOCK_PORTS  = (SCU_CLK_CGATSTAT1_PPORTS_Msk | 0x10000000UL),   /**< PORTS per
 434:D:\Naukowe\BLDC_workspace\PWM_from_ex\Libraries\XMCLib\inc\xmc4_scu.h ****   XMC_SCU_PERIPHERAL_CLOCK_WDT    = (SCU_CLK_CGATSTAT2_WDT_Msk | 0x20000000UL),      /**< WDT perip
 435:D:\Naukowe\BLDC_workspace\PWM_from_ex\Libraries\XMCLib\inc\xmc4_scu.h **** #if defined(ETH0)
 436:D:\Naukowe\BLDC_workspace\PWM_from_ex\Libraries\XMCLib\inc\xmc4_scu.h ****   XMC_SCU_PERIPHERAL_CLOCK_ETH0   = (SCU_CLK_CGATSTAT2_ETH0_Msk | 0x20000000UL),     /**< ETH0 peri
 437:D:\Naukowe\BLDC_workspace\PWM_from_ex\Libraries\XMCLib\inc\xmc4_scu.h **** #endif
 438:D:\Naukowe\BLDC_workspace\PWM_from_ex\Libraries\XMCLib\inc\xmc4_scu.h ****   XMC_SCU_PERIPHERAL_CLOCK_GPDMA0 = (SCU_CLK_CGATSTAT2_DMA0_Msk | 0x20000000UL),     /**< DMA0 peri
 439:D:\Naukowe\BLDC_workspace\PWM_from_ex\Libraries\XMCLib\inc\xmc4_scu.h **** #if defined(GPDMA1)
 440:D:\Naukowe\BLDC_workspace\PWM_from_ex\Libraries\XMCLib\inc\xmc4_scu.h ****   XMC_SCU_PERIPHERAL_CLOCK_GPDMA1 = (SCU_CLK_CGATSTAT2_DMA1_Msk | 0x20000000UL),     /**< DMA1 peri
 441:D:\Naukowe\BLDC_workspace\PWM_from_ex\Libraries\XMCLib\inc\xmc4_scu.h **** #endif
 442:D:\Naukowe\BLDC_workspace\PWM_from_ex\Libraries\XMCLib\inc\xmc4_scu.h **** #if defined(FCE)
 443:D:\Naukowe\BLDC_workspace\PWM_from_ex\Libraries\XMCLib\inc\xmc4_scu.h ****   XMC_SCU_PERIPHERAL_CLOCK_FCE    = (SCU_CLK_CGATSTAT2_FCE_Msk | 0x20000000UL),      /**< FCE perip
 444:D:\Naukowe\BLDC_workspace\PWM_from_ex\Libraries\XMCLib\inc\xmc4_scu.h **** #endif  
 445:D:\Naukowe\BLDC_workspace\PWM_from_ex\Libraries\XMCLib\inc\xmc4_scu.h **** #if defined(USB0)
 446:D:\Naukowe\BLDC_workspace\PWM_from_ex\Libraries\XMCLib\inc\xmc4_scu.h ****   XMC_SCU_PERIPHERAL_CLOCK_USB0   = (SCU_CLK_CGATSTAT2_USB_Msk | 0x20000000UL),      /**< USB0 peri
 447:D:\Naukowe\BLDC_workspace\PWM_from_ex\Libraries\XMCLib\inc\xmc4_scu.h **** #endif  
 448:D:\Naukowe\BLDC_workspace\PWM_from_ex\Libraries\XMCLib\inc\xmc4_scu.h **** #if defined(ECAT0)
 449:D:\Naukowe\BLDC_workspace\PWM_from_ex\Libraries\XMCLib\inc\xmc4_scu.h ****   XMC_SCU_PERIPHERAL_CLOCK_ECAT0   = (SCU_CLK_CGATSTAT2_ECAT0_Msk | 0x20000000UL),      /**< ECAT0 
 450:D:\Naukowe\BLDC_workspace\PWM_from_ex\Libraries\XMCLib\inc\xmc4_scu.h **** #endif  
 451:D:\Naukowe\BLDC_workspace\PWM_from_ex\Libraries\XMCLib\inc\xmc4_scu.h **** #if defined(EBU)
 452:D:\Naukowe\BLDC_workspace\PWM_from_ex\Libraries\XMCLib\inc\xmc4_scu.h ****   XMC_SCU_PERIPHERAL_CLOCK_EBU    = (SCU_CLK_CGATSTAT3_EBU_Msk | 0x30000000UL)       /**< EBU perip
 453:D:\Naukowe\BLDC_workspace\PWM_from_ex\Libraries\XMCLib\inc\xmc4_scu.h **** #endif
 454:D:\Naukowe\BLDC_workspace\PWM_from_ex\Libraries\XMCLib\inc\xmc4_scu.h **** } XMC_SCU_PERIPHERAL_CLOCK_t;
 455:D:\Naukowe\BLDC_workspace\PWM_from_ex\Libraries\XMCLib\inc\xmc4_scu.h **** #endif
 456:D:\Naukowe\BLDC_workspace\PWM_from_ex\Libraries\XMCLib\inc\xmc4_scu.h **** 
 457:D:\Naukowe\BLDC_workspace\PWM_from_ex\Libraries\XMCLib\inc\xmc4_scu.h **** /**
 458:D:\Naukowe\BLDC_workspace\PWM_from_ex\Libraries\XMCLib\inc\xmc4_scu.h ****  *  Defines options for system clock (fSYS) source. These enums are used to configure \a SYSSEL bit
 459:D:\Naukowe\BLDC_workspace\PWM_from_ex\Libraries\XMCLib\inc\xmc4_scu.h ****  *  Clock Control Register. 
 460:D:\Naukowe\BLDC_workspace\PWM_from_ex\Libraries\XMCLib\inc\xmc4_scu.h ****  *  Use type \a XMC_SCU_CLOCK_SYSCLKSRC_t for accessing these enum parameters.
 461:D:\Naukowe\BLDC_workspace\PWM_from_ex\Libraries\XMCLib\inc\xmc4_scu.h ****  */ 
 462:D:\Naukowe\BLDC_workspace\PWM_from_ex\Libraries\XMCLib\inc\xmc4_scu.h **** typedef enum XMC_SCU_CLOCK_SYSCLKSRC
 463:D:\Naukowe\BLDC_workspace\PWM_from_ex\Libraries\XMCLib\inc\xmc4_scu.h **** {
 464:D:\Naukowe\BLDC_workspace\PWM_from_ex\Libraries\XMCLib\inc\xmc4_scu.h ****   XMC_SCU_CLOCK_SYSCLKSRC_OFI = (0UL << SCU_CLK_SYSCLKCR_SYSSEL_Pos), /**< Internal Fast Clock (fOF
 465:D:\Naukowe\BLDC_workspace\PWM_from_ex\Libraries\XMCLib\inc\xmc4_scu.h ****                                                                            source for system clock 
 466:D:\Naukowe\BLDC_workspace\PWM_from_ex\Libraries\XMCLib\inc\xmc4_scu.h ****   XMC_SCU_CLOCK_SYSCLKSRC_PLL = (1UL << SCU_CLK_SYSCLKCR_SYSSEL_Pos)  /**< PLL output (fPLL) as a
 467:D:\Naukowe\BLDC_workspace\PWM_from_ex\Libraries\XMCLib\inc\xmc4_scu.h ****                                                                            source for system clock 
 468:D:\Naukowe\BLDC_workspace\PWM_from_ex\Libraries\XMCLib\inc\xmc4_scu.h **** } XMC_SCU_CLOCK_SYSCLKSRC_t;
 469:D:\Naukowe\BLDC_workspace\PWM_from_ex\Libraries\XMCLib\inc\xmc4_scu.h **** 
 470:D:\Naukowe\BLDC_workspace\PWM_from_ex\Libraries\XMCLib\inc\xmc4_scu.h **** /**
 471:D:\Naukowe\BLDC_workspace\PWM_from_ex\Libraries\XMCLib\inc\xmc4_scu.h ****  *  Defines options for selecting the P-Divider input frequency. These enums are used to configure 
 472:D:\Naukowe\BLDC_workspace\PWM_from_ex\Libraries\XMCLib\inc\xmc4_scu.h ****  *  register. 
 473:D:\Naukowe\BLDC_workspace\PWM_from_ex\Libraries\XMCLib\inc\xmc4_scu.h ****  *  Use type \a XMC_SCU_CLOCK_OSCCLKSRC_t for accessing these enum parameters.
 474:D:\Naukowe\BLDC_workspace\PWM_from_ex\Libraries\XMCLib\inc\xmc4_scu.h ****  */ 
 475:D:\Naukowe\BLDC_workspace\PWM_from_ex\Libraries\XMCLib\inc\xmc4_scu.h **** typedef enum XMC_SCU_CLOCK_SYSPLLCLKSRC
 476:D:\Naukowe\BLDC_workspace\PWM_from_ex\Libraries\XMCLib\inc\xmc4_scu.h **** {
 477:D:\Naukowe\BLDC_workspace\PWM_from_ex\Libraries\XMCLib\inc\xmc4_scu.h ****   XMC_SCU_CLOCK_SYSPLLCLKSRC_OSCHP = 0UL,  /**< External crystal oscillator
 478:D:\Naukowe\BLDC_workspace\PWM_from_ex\Libraries\XMCLib\inc\xmc4_scu.h ****                                                 (fOHP) as the source for P-Divider. */
 479:D:\Naukowe\BLDC_workspace\PWM_from_ex\Libraries\XMCLib\inc\xmc4_scu.h ****   XMC_SCU_CLOCK_SYSPLLCLKSRC_OFI = SCU_PLL_PLLCON2_PINSEL_Msk | SCU_PLL_PLLCON2_K1INSEL_Msk /**< Ba
 480:D:\Naukowe\BLDC_workspace\PWM_from_ex\Libraries\XMCLib\inc\xmc4_scu.h ****                                                                              as the source for P-Di
 481:D:\Naukowe\BLDC_workspace\PWM_from_ex\Libraries\XMCLib\inc\xmc4_scu.h **** } XMC_SCU_CLOCK_SYSPLLCLKSRC_t;
 482:D:\Naukowe\BLDC_workspace\PWM_from_ex\Libraries\XMCLib\inc\xmc4_scu.h **** 
 483:D:\Naukowe\BLDC_workspace\PWM_from_ex\Libraries\XMCLib\inc\xmc4_scu.h **** /**
 484:D:\Naukowe\BLDC_workspace\PWM_from_ex\Libraries\XMCLib\inc\xmc4_scu.h ****  * Defines options for selecting the USB clock source(fUSB/fSDMMC).
 485:D:\Naukowe\BLDC_workspace\PWM_from_ex\Libraries\XMCLib\inc\xmc4_scu.h ****  * These enums are used to configure \a USBSEL bits of \a USBCLKCR
 486:D:\Naukowe\BLDC_workspace\PWM_from_ex\Libraries\XMCLib\inc\xmc4_scu.h ****  * register. User can choose either fPLL or fUSBPLL clock as a source for USB clock. 
 487:D:\Naukowe\BLDC_workspace\PWM_from_ex\Libraries\XMCLib\inc\xmc4_scu.h ****  * Use type \a XMC_SCU_CLOCK_USBCLKSRC_t for accessing these enum parameters.
 488:D:\Naukowe\BLDC_workspace\PWM_from_ex\Libraries\XMCLib\inc\xmc4_scu.h ****  */ 
 489:D:\Naukowe\BLDC_workspace\PWM_from_ex\Libraries\XMCLib\inc\xmc4_scu.h **** typedef enum XMC_SCU_CLOCK_USBCLKSRC
 490:D:\Naukowe\BLDC_workspace\PWM_from_ex\Libraries\XMCLib\inc\xmc4_scu.h **** {
 491:D:\Naukowe\BLDC_workspace\PWM_from_ex\Libraries\XMCLib\inc\xmc4_scu.h ****   XMC_SCU_CLOCK_USBCLKSRC_USBPLL = (0UL << SCU_CLK_USBCLKCR_USBSEL_Pos), /**< USB PLL(fUSB PLL) as 
 492:D:\Naukowe\BLDC_workspace\PWM_from_ex\Libraries\XMCLib\inc\xmc4_scu.h ****                                                                            source for USB clock (fU
 493:D:\Naukowe\BLDC_workspace\PWM_from_ex\Libraries\XMCLib\inc\xmc4_scu.h ****   XMC_SCU_CLOCK_USBCLKSRC_SYSPLL = (1UL << SCU_CLK_USBCLKCR_USBSEL_Pos)  /**< Main PLL output (fPLL
 494:D:\Naukowe\BLDC_workspace\PWM_from_ex\Libraries\XMCLib\inc\xmc4_scu.h ****                                                                            source for USB clock (fU
 495:D:\Naukowe\BLDC_workspace\PWM_from_ex\Libraries\XMCLib\inc\xmc4_scu.h **** } XMC_SCU_CLOCK_USBCLKSRC_t;
 496:D:\Naukowe\BLDC_workspace\PWM_from_ex\Libraries\XMCLib\inc\xmc4_scu.h **** 
 497:D:\Naukowe\BLDC_workspace\PWM_from_ex\Libraries\XMCLib\inc\xmc4_scu.h **** #if defined(ECAT0) 
 498:D:\Naukowe\BLDC_workspace\PWM_from_ex\Libraries\XMCLib\inc\xmc4_scu.h **** /**
 499:D:\Naukowe\BLDC_workspace\PWM_from_ex\Libraries\XMCLib\inc\xmc4_scu.h ****  * Defines options for selecting the PERIPH2 clock source.
 500:D:\Naukowe\BLDC_workspace\PWM_from_ex\Libraries\XMCLib\inc\xmc4_scu.h ****  */ 
 501:D:\Naukowe\BLDC_workspace\PWM_from_ex\Libraries\XMCLib\inc\xmc4_scu.h **** typedef enum XMC_SCU_CLOCK_ECATCLKSRC
 502:D:\Naukowe\BLDC_workspace\PWM_from_ex\Libraries\XMCLib\inc\xmc4_scu.h **** {
 503:D:\Naukowe\BLDC_workspace\PWM_from_ex\Libraries\XMCLib\inc\xmc4_scu.h ****   XMC_SCU_CLOCK_ECATCLKSRC_USBPLL = (0UL << SCU_CLK_ECATCLKCR_ECATSEL_Pos), /**< USB PLL (fUSBPLL) 
 504:D:\Naukowe\BLDC_workspace\PWM_from_ex\Libraries\XMCLib\inc\xmc4_scu.h ****   XMC_SCU_CLOCK_ECATCLKSRC_SYSPLL = (1UL << SCU_CLK_ECATCLKCR_ECATSEL_Pos)  /**< Main PLL output (f
 505:D:\Naukowe\BLDC_workspace\PWM_from_ex\Libraries\XMCLib\inc\xmc4_scu.h **** } XMC_SCU_CLOCK_ECATCLKSRC_t;
 506:D:\Naukowe\BLDC_workspace\PWM_from_ex\Libraries\XMCLib\inc\xmc4_scu.h **** #endif
 507:D:\Naukowe\BLDC_workspace\PWM_from_ex\Libraries\XMCLib\inc\xmc4_scu.h **** 
 508:D:\Naukowe\BLDC_workspace\PWM_from_ex\Libraries\XMCLib\inc\xmc4_scu.h **** /**
 509:D:\Naukowe\BLDC_workspace\PWM_from_ex\Libraries\XMCLib\inc\xmc4_scu.h ****  *  Defines options for selecting the source of WDT clock(fWDT). These enums are used to configure 
 510:D:\Naukowe\BLDC_workspace\PWM_from_ex\Libraries\XMCLib\inc\xmc4_scu.h ****  *  register. User can choose either fOFI or fPLL or fSTDBY clock as a source for WDT clock. 
 511:D:\Naukowe\BLDC_workspace\PWM_from_ex\Libraries\XMCLib\inc\xmc4_scu.h ****  *  Use type \a XMC_SCU_CLOCK_USBCLKSRC_t for accessing these enum parameters.
 512:D:\Naukowe\BLDC_workspace\PWM_from_ex\Libraries\XMCLib\inc\xmc4_scu.h ****  */ 
 513:D:\Naukowe\BLDC_workspace\PWM_from_ex\Libraries\XMCLib\inc\xmc4_scu.h **** typedef enum XMC_SCU_CLOCK_WDTCLKSRC
 514:D:\Naukowe\BLDC_workspace\PWM_from_ex\Libraries\XMCLib\inc\xmc4_scu.h **** {
 515:D:\Naukowe\BLDC_workspace\PWM_from_ex\Libraries\XMCLib\inc\xmc4_scu.h ****   XMC_SCU_CLOCK_WDTCLKSRC_OFI = (0UL << SCU_CLK_WDTCLKCR_WDTSEL_Pos),  /**< Internal Fast Clock 
 516:D:\Naukowe\BLDC_workspace\PWM_from_ex\Libraries\XMCLib\inc\xmc4_scu.h ****                                                                            (fOFI) as the source for
 517:D:\Naukowe\BLDC_workspace\PWM_from_ex\Libraries\XMCLib\inc\xmc4_scu.h ****   XMC_SCU_CLOCK_WDTCLKSRC_STDBY = (1UL << SCU_CLK_WDTCLKCR_WDTSEL_Pos), /**< Standby clock 
 518:D:\Naukowe\BLDC_workspace\PWM_from_ex\Libraries\XMCLib\inc\xmc4_scu.h ****                                                                            (fSTDBY) as the source f
 519:D:\Naukowe\BLDC_workspace\PWM_from_ex\Libraries\XMCLib\inc\xmc4_scu.h ****   XMC_SCU_CLOCK_WDTCLKSRC_PLL = (2UL << SCU_CLK_WDTCLKCR_WDTSEL_Pos)   /**< PLL output (fPLL) as th
 520:D:\Naukowe\BLDC_workspace\PWM_from_ex\Libraries\XMCLib\inc\xmc4_scu.h ****                                                                            source for WDT clock (fW
 521:D:\Naukowe\BLDC_workspace\PWM_from_ex\Libraries\XMCLib\inc\xmc4_scu.h **** } XMC_SCU_CLOCK_WDTCLKSRC_t;
 522:D:\Naukowe\BLDC_workspace\PWM_from_ex\Libraries\XMCLib\inc\xmc4_scu.h **** 
 523:D:\Naukowe\BLDC_workspace\PWM_from_ex\Libraries\XMCLib\inc\xmc4_scu.h **** /**
 524:D:\Naukowe\BLDC_workspace\PWM_from_ex\Libraries\XMCLib\inc\xmc4_scu.h ****  *  Defines options for selecting the source of external clock out (fEXT). These enums are used to 
 525:D:\Naukowe\BLDC_workspace\PWM_from_ex\Libraries\XMCLib\inc\xmc4_scu.h ****  *  register. User can choose either fSYS or fPLL or fUSBPLL clock as a source for external clock o
 526:D:\Naukowe\BLDC_workspace\PWM_from_ex\Libraries\XMCLib\inc\xmc4_scu.h ****  *  Use type \a XMC_SCU_CLOCK_EXTOUTCLKSRC_t for accessing these enum parameters.
 527:D:\Naukowe\BLDC_workspace\PWM_from_ex\Libraries\XMCLib\inc\xmc4_scu.h ****  */ 
 528:D:\Naukowe\BLDC_workspace\PWM_from_ex\Libraries\XMCLib\inc\xmc4_scu.h **** typedef enum XMC_SCU_CLOCK_EXTOUTCLKSRC
 529:D:\Naukowe\BLDC_workspace\PWM_from_ex\Libraries\XMCLib\inc\xmc4_scu.h **** {
 530:D:\Naukowe\BLDC_workspace\PWM_from_ex\Libraries\XMCLib\inc\xmc4_scu.h ****   XMC_SCU_CLOCK_EXTOUTCLKSRC_SYS = (0UL << SCU_CLK_EXTCLKCR_ECKSEL_Pos),  /**< System clock (fSYS) 
 531:D:\Naukowe\BLDC_workspace\PWM_from_ex\Libraries\XMCLib\inc\xmc4_scu.h ****                                                                             the source for external
 532:D:\Naukowe\BLDC_workspace\PWM_from_ex\Libraries\XMCLib\inc\xmc4_scu.h ****   XMC_SCU_CLOCK_EXTOUTCLKSRC_USB = (2UL << SCU_CLK_EXTCLKCR_ECKSEL_Pos), /**< USB PLL output(fUSB P
 533:D:\Naukowe\BLDC_workspace\PWM_from_ex\Libraries\XMCLib\inc\xmc4_scu.h ****                                                                            source for external cloc
 534:D:\Naukowe\BLDC_workspace\PWM_from_ex\Libraries\XMCLib\inc\xmc4_scu.h ****   XMC_SCU_CLOCK_EXTOUTCLKSRC_PLL = (3UL << SCU_CLK_EXTCLKCR_ECKSEL_Pos), /**< Main PLL output(fPLL)
 535:D:\Naukowe\BLDC_workspace\PWM_from_ex\Libraries\XMCLib\inc\xmc4_scu.h ****                                                                            source for external cloc
 536:D:\Naukowe\BLDC_workspace\PWM_from_ex\Libraries\XMCLib\inc\xmc4_scu.h **** #if ((UC_SERIES == XMC42) || (UC_SERIES == XMC41))
 537:D:\Naukowe\BLDC_workspace\PWM_from_ex\Libraries\XMCLib\inc\xmc4_scu.h ****   XMC_SCU_CLOCK_EXTOUTCLKSRC_STDBY = (4UL << SCU_CLK_EXTCLKCR_ECKSEL_Pos), /**< Standby clock(fSTDB
 538:D:\Naukowe\BLDC_workspace\PWM_from_ex\Libraries\XMCLib\inc\xmc4_scu.h ****                                                                            source for external cloc
 539:D:\Naukowe\BLDC_workspace\PWM_from_ex\Libraries\XMCLib\inc\xmc4_scu.h **** #endif
 540:D:\Naukowe\BLDC_workspace\PWM_from_ex\Libraries\XMCLib\inc\xmc4_scu.h **** } XMC_SCU_CLOCK_EXTOUTCLKSRC_t;
 541:D:\Naukowe\BLDC_workspace\PWM_from_ex\Libraries\XMCLib\inc\xmc4_scu.h **** 
 542:D:\Naukowe\BLDC_workspace\PWM_from_ex\Libraries\XMCLib\inc\xmc4_scu.h **** /**
 543:D:\Naukowe\BLDC_workspace\PWM_from_ex\Libraries\XMCLib\inc\xmc4_scu.h ****  *  Defines options for selecting the source of RTC Clock (fRTC). These enums are used to configure
 544:D:\Naukowe\BLDC_workspace\PWM_from_ex\Libraries\XMCLib\inc\xmc4_scu.h ****  *  User can choose either fOSI or fULP clock as a source for RTC Clock (fRTC).
 545:D:\Naukowe\BLDC_workspace\PWM_from_ex\Libraries\XMCLib\inc\xmc4_scu.h ****  *  Use type \a XMC_SCU_HIB_RTCCLKSRC_t for accessing these enum parameters.
 546:D:\Naukowe\BLDC_workspace\PWM_from_ex\Libraries\XMCLib\inc\xmc4_scu.h ****  */
 547:D:\Naukowe\BLDC_workspace\PWM_from_ex\Libraries\XMCLib\inc\xmc4_scu.h **** typedef enum XMC_SCU_HIB_RTCCLKSRC
 548:D:\Naukowe\BLDC_workspace\PWM_from_ex\Libraries\XMCLib\inc\xmc4_scu.h **** {
 549:D:\Naukowe\BLDC_workspace\PWM_from_ex\Libraries\XMCLib\inc\xmc4_scu.h ****   XMC_SCU_HIB_RTCCLKSRC_OSI = (0UL << SCU_HIBERNATE_HDCR_RCS_Pos), /**< Internal Slow Clock
 550:D:\Naukowe\BLDC_workspace\PWM_from_ex\Libraries\XMCLib\inc\xmc4_scu.h ****                                                                          (fOSI) as the source for R
 551:D:\Naukowe\BLDC_workspace\PWM_from_ex\Libraries\XMCLib\inc\xmc4_scu.h ****   XMC_SCU_HIB_RTCCLKSRC_ULP = (1UL << SCU_HIBERNATE_HDCR_RCS_Pos) /**< Ultra Low Power Clock (fULP)
 552:D:\Naukowe\BLDC_workspace\PWM_from_ex\Libraries\XMCLib\inc\xmc4_scu.h ****                                                                         as the source for RTC Clock
 553:D:\Naukowe\BLDC_workspace\PWM_from_ex\Libraries\XMCLib\inc\xmc4_scu.h **** } XMC_SCU_HIB_RTCCLKSRC_t;
 554:D:\Naukowe\BLDC_workspace\PWM_from_ex\Libraries\XMCLib\inc\xmc4_scu.h **** 
 555:D:\Naukowe\BLDC_workspace\PWM_from_ex\Libraries\XMCLib\inc\xmc4_scu.h **** /**
 556:D:\Naukowe\BLDC_workspace\PWM_from_ex\Libraries\XMCLib\inc\xmc4_scu.h ****  *  Defines options for selecting the source of Standby Clock (fSTDBY). These enums are used to con
 557:D:\Naukowe\BLDC_workspace\PWM_from_ex\Libraries\XMCLib\inc\xmc4_scu.h ****  *  register. User can choose either fOSI or fULP clock as a source for Standby Clock (fSTDBY).
 558:D:\Naukowe\BLDC_workspace\PWM_from_ex\Libraries\XMCLib\inc\xmc4_scu.h ****  *  Use type \a XMC_SCU_HIB_STDBYCLKSRC_t for accessing these enum parameters.
 559:D:\Naukowe\BLDC_workspace\PWM_from_ex\Libraries\XMCLib\inc\xmc4_scu.h ****  */
 560:D:\Naukowe\BLDC_workspace\PWM_from_ex\Libraries\XMCLib\inc\xmc4_scu.h **** typedef enum XMC_SCU_HIB_STDBYCLKSRC
 561:D:\Naukowe\BLDC_workspace\PWM_from_ex\Libraries\XMCLib\inc\xmc4_scu.h **** {
 562:D:\Naukowe\BLDC_workspace\PWM_from_ex\Libraries\XMCLib\inc\xmc4_scu.h ****   XMC_SCU_HIB_STDBYCLKSRC_OSI = (0UL << SCU_HIBERNATE_HDCR_STDBYSEL_Pos), /**< Internal Slow Clock 
 563:D:\Naukowe\BLDC_workspace\PWM_from_ex\Libraries\XMCLib\inc\xmc4_scu.h ****                                                                           (fOSI) as the source for 
 564:D:\Naukowe\BLDC_workspace\PWM_from_ex\Libraries\XMCLib\inc\xmc4_scu.h ****                                                                           (fSTDBY). */
 565:D:\Naukowe\BLDC_workspace\PWM_from_ex\Libraries\XMCLib\inc\xmc4_scu.h ****   XMC_SCU_HIB_STDBYCLKSRC_OSCULP = (1UL << SCU_HIBERNATE_HDCR_STDBYSEL_Pos) /**< Ultra Low Power Cl
 566:D:\Naukowe\BLDC_workspace\PWM_from_ex\Libraries\XMCLib\inc\xmc4_scu.h ****                                                                           (fULP) as the source for 
 567:D:\Naukowe\BLDC_workspace\PWM_from_ex\Libraries\XMCLib\inc\xmc4_scu.h ****                                                                           (fSTDBY). */
 568:D:\Naukowe\BLDC_workspace\PWM_from_ex\Libraries\XMCLib\inc\xmc4_scu.h **** } XMC_SCU_HIB_STDBYCLKSRC_t;
 569:D:\Naukowe\BLDC_workspace\PWM_from_ex\Libraries\XMCLib\inc\xmc4_scu.h **** 
 570:D:\Naukowe\BLDC_workspace\PWM_from_ex\Libraries\XMCLib\inc\xmc4_scu.h **** /**
 571:D:\Naukowe\BLDC_workspace\PWM_from_ex\Libraries\XMCLib\inc\xmc4_scu.h ****  *  Defines options for backup clock trimming. These enums are used to configure \a AOTREN  \a FOTR
 572:D:\Naukowe\BLDC_workspace\PWM_from_ex\Libraries\XMCLib\inc\xmc4_scu.h ****  *  PLLCON0 register. Use type \a XMC_SCU_CLOCK_BACKUP_TRIM_t for accessing these enum parameters.
 573:D:\Naukowe\BLDC_workspace\PWM_from_ex\Libraries\XMCLib\inc\xmc4_scu.h ****  */
 574:D:\Naukowe\BLDC_workspace\PWM_from_ex\Libraries\XMCLib\inc\xmc4_scu.h **** typedef enum XMC_SCU_CLOCK_FOFI_CALIBRATION_MODE
 575:D:\Naukowe\BLDC_workspace\PWM_from_ex\Libraries\XMCLib\inc\xmc4_scu.h **** {
 576:D:\Naukowe\BLDC_workspace\PWM_from_ex\Libraries\XMCLib\inc\xmc4_scu.h ****   XMC_SCU_CLOCK_FOFI_CALIBRATION_MODE_FACTORY   = 0UL,  /**< Factory Oscillator Calibration: 
 577:D:\Naukowe\BLDC_workspace\PWM_from_ex\Libraries\XMCLib\inc\xmc4_scu.h ****                                                         Force adjustment of the internal oscillator
 578:D:\Naukowe\BLDC_workspace\PWM_from_ex\Libraries\XMCLib\inc\xmc4_scu.h ****   XMC_SCU_CLOCK_FOFI_CALIBRATION_MODE_AUTOMATIC = 1UL   /**<  Automatic Oscillator Calibration adju
 579:D:\Naukowe\BLDC_workspace\PWM_from_ex\Libraries\XMCLib\inc\xmc4_scu.h **** } XMC_SCU_CLOCK_FOFI_CALIBRATION_MODE_t;
 580:D:\Naukowe\BLDC_workspace\PWM_from_ex\Libraries\XMCLib\inc\xmc4_scu.h **** 
 581:D:\Naukowe\BLDC_workspace\PWM_from_ex\Libraries\XMCLib\inc\xmc4_scu.h **** 
 582:D:\Naukowe\BLDC_workspace\PWM_from_ex\Libraries\XMCLib\inc\xmc4_scu.h **** /**
 583:D:\Naukowe\BLDC_workspace\PWM_from_ex\Libraries\XMCLib\inc\xmc4_scu.h ****  *  Defines options for selecting device boot mode. These enums are used to configure \a SWCON bits
 584:D:\Naukowe\BLDC_workspace\PWM_from_ex\Libraries\XMCLib\inc\xmc4_scu.h ****  *  User can choose among various boot modes by configuring SWCON bits.
 585:D:\Naukowe\BLDC_workspace\PWM_from_ex\Libraries\XMCLib\inc\xmc4_scu.h ****  *  Use type \a XMC_SCU_BOOTMODE_t for accessing these enum parameters.
 586:D:\Naukowe\BLDC_workspace\PWM_from_ex\Libraries\XMCLib\inc\xmc4_scu.h ****  */
 587:D:\Naukowe\BLDC_workspace\PWM_from_ex\Libraries\XMCLib\inc\xmc4_scu.h **** typedef enum XMC_SCU_BOOTMODE 
 588:D:\Naukowe\BLDC_workspace\PWM_from_ex\Libraries\XMCLib\inc\xmc4_scu.h **** {
 589:D:\Naukowe\BLDC_workspace\PWM_from_ex\Libraries\XMCLib\inc\xmc4_scu.h ****   XMC_SCU_BOOTMODE_NORMAL     = (0UL << SCU_GENERAL_STCON_SWCON_Pos), /**< Boot from start of flash
 590:D:\Naukowe\BLDC_workspace\PWM_from_ex\Libraries\XMCLib\inc\xmc4_scu.h ****   XMC_SCU_BOOTMODE_ASC_BSL    = (1UL << SCU_GENERAL_STCON_SWCON_Pos), /**< UART bootstrap. */
 591:D:\Naukowe\BLDC_workspace\PWM_from_ex\Libraries\XMCLib\inc\xmc4_scu.h ****   XMC_SCU_BOOTMODE_BMI        = (2UL << SCU_GENERAL_STCON_SWCON_Pos), /**< Boot Mode Index - Custom
 592:D:\Naukowe\BLDC_workspace\PWM_from_ex\Libraries\XMCLib\inc\xmc4_scu.h ****                                                                            sequence. */
 593:D:\Naukowe\BLDC_workspace\PWM_from_ex\Libraries\XMCLib\inc\xmc4_scu.h ****   XMC_SCU_BOOTMODE_CAN_BSL    = (3UL << SCU_GENERAL_STCON_SWCON_Pos), /**< CAN bootstrap. */
 594:D:\Naukowe\BLDC_workspace\PWM_from_ex\Libraries\XMCLib\inc\xmc4_scu.h ****   XMC_SCU_BOOTMODE_PSRAM_BOOT = (4UL << SCU_GENERAL_STCON_SWCON_Pos), /**< Boot from PSRAM. */
 595:D:\Naukowe\BLDC_workspace\PWM_from_ex\Libraries\XMCLib\inc\xmc4_scu.h ****   XMC_SCU_BOOTMODE_ABM0       = (8UL << SCU_GENERAL_STCON_SWCON_Pos), /**< Boot from flash - fixed 
 596:D:\Naukowe\BLDC_workspace\PWM_from_ex\Libraries\XMCLib\inc\xmc4_scu.h ****                                                                            address 0. */
 597:D:\Naukowe\BLDC_workspace\PWM_from_ex\Libraries\XMCLib\inc\xmc4_scu.h ****   XMC_SCU_BOOTMODE_ABM1       = (12UL << SCU_GENERAL_STCON_SWCON_Pos), /**< Boot from flash - fixed
 598:D:\Naukowe\BLDC_workspace\PWM_from_ex\Libraries\XMCLib\inc\xmc4_scu.h ****                                                                             address 1. */
 599:D:\Naukowe\BLDC_workspace\PWM_from_ex\Libraries\XMCLib\inc\xmc4_scu.h ****   XMC_SCU_BOOTMODE_FABM       = (14UL << SCU_GENERAL_STCON_SWCON_Pos), /**< fallback Alternate Boot
 600:D:\Naukowe\BLDC_workspace\PWM_from_ex\Libraries\XMCLib\inc\xmc4_scu.h ****                                                                             Try ABM-0 then try ABM-
 601:D:\Naukowe\BLDC_workspace\PWM_from_ex\Libraries\XMCLib\inc\xmc4_scu.h **** } XMC_SCU_BOOTMODE_t;
 602:D:\Naukowe\BLDC_workspace\PWM_from_ex\Libraries\XMCLib\inc\xmc4_scu.h **** 
 603:D:\Naukowe\BLDC_workspace\PWM_from_ex\Libraries\XMCLib\inc\xmc4_scu.h **** 
 604:D:\Naukowe\BLDC_workspace\PWM_from_ex\Libraries\XMCLib\inc\xmc4_scu.h **** /**
 605:D:\Naukowe\BLDC_workspace\PWM_from_ex\Libraries\XMCLib\inc\xmc4_scu.h ****  *  Defines various PLL modes of operation. These enums are used to configure \a VCOBYP bit of \a P
 606:D:\Naukowe\BLDC_workspace\PWM_from_ex\Libraries\XMCLib\inc\xmc4_scu.h ****  *  User can choose either normal or prescalar mode by configuring VCOBYP bit.
 607:D:\Naukowe\BLDC_workspace\PWM_from_ex\Libraries\XMCLib\inc\xmc4_scu.h ****  *  Use type \a XMC_SCU_PLL_MODE_t for accessing these enum parameters.
 608:D:\Naukowe\BLDC_workspace\PWM_from_ex\Libraries\XMCLib\inc\xmc4_scu.h ****  */
 609:D:\Naukowe\BLDC_workspace\PWM_from_ex\Libraries\XMCLib\inc\xmc4_scu.h **** typedef enum XMC_SCU_CLOCK_SYSPLL_MODE
 610:D:\Naukowe\BLDC_workspace\PWM_from_ex\Libraries\XMCLib\inc\xmc4_scu.h **** {
 611:D:\Naukowe\BLDC_workspace\PWM_from_ex\Libraries\XMCLib\inc\xmc4_scu.h ****   XMC_SCU_CLOCK_SYSPLL_MODE_DISABLED, /**< fPLL derived from fOSC and PLL operating in prescalar mo
 612:D:\Naukowe\BLDC_workspace\PWM_from_ex\Libraries\XMCLib\inc\xmc4_scu.h ****   XMC_SCU_CLOCK_SYSPLL_MODE_NORMAL,  /**< fPLL derived from fVCO and PLL operating in normal mode. 
 613:D:\Naukowe\BLDC_workspace\PWM_from_ex\Libraries\XMCLib\inc\xmc4_scu.h ****   XMC_SCU_CLOCK_SYSPLL_MODE_PRESCALAR /**< fPLL derived from fOSC and PLL operating in prescalar mo
 614:D:\Naukowe\BLDC_workspace\PWM_from_ex\Libraries\XMCLib\inc\xmc4_scu.h **** } XMC_SCU_CLOCK_SYSPLL_MODE_t;
 615:D:\Naukowe\BLDC_workspace\PWM_from_ex\Libraries\XMCLib\inc\xmc4_scu.h **** 
 616:D:\Naukowe\BLDC_workspace\PWM_from_ex\Libraries\XMCLib\inc\xmc4_scu.h **** /**
 617:D:\Naukowe\BLDC_workspace\PWM_from_ex\Libraries\XMCLib\inc\xmc4_scu.h ****  *
 618:D:\Naukowe\BLDC_workspace\PWM_from_ex\Libraries\XMCLib\inc\xmc4_scu.h ****  */
 619:D:\Naukowe\BLDC_workspace\PWM_from_ex\Libraries\XMCLib\inc\xmc4_scu.h **** typedef enum XMC_SCU_CLOCK_SLEEP_MODE_CONFIG
 620:D:\Naukowe\BLDC_workspace\PWM_from_ex\Libraries\XMCLib\inc\xmc4_scu.h **** {
 621:D:\Naukowe\BLDC_workspace\PWM_from_ex\Libraries\XMCLib\inc\xmc4_scu.h ****   XMC_SCU_CLOCK_SLEEP_MODE_CONFIG_SYSCLK_FOFI = 0,  //!< XMC_SCU_CLOCK_SLEEP_MODE_CONFIG_SYSCLK_FOF
 622:D:\Naukowe\BLDC_workspace\PWM_from_ex\Libraries\XMCLib\inc\xmc4_scu.h ****   XMC_SCU_CLOCK_SLEEP_MODE_CONFIG_SYSCLK_FPLL = SCU_CLK_SLEEPCR_SYSSEL_Msk,  //!< XMC_SCU_CLOCK_SLE
 623:D:\Naukowe\BLDC_workspace\PWM_from_ex\Libraries\XMCLib\inc\xmc4_scu.h **** #if defined(USB0)
 624:D:\Naukowe\BLDC_workspace\PWM_from_ex\Libraries\XMCLib\inc\xmc4_scu.h ****   XMC_SCU_CLOCK_SLEEP_MODE_CONFIG_DISABLE_USB = SCU_CLK_SLEEPCR_USBCR_Msk,  //!< XMC_SCU_CLOCK_SLEE
 625:D:\Naukowe\BLDC_workspace\PWM_from_ex\Libraries\XMCLib\inc\xmc4_scu.h **** #endif  
 626:D:\Naukowe\BLDC_workspace\PWM_from_ex\Libraries\XMCLib\inc\xmc4_scu.h **** #if defined(SDMMC)
 627:D:\Naukowe\BLDC_workspace\PWM_from_ex\Libraries\XMCLib\inc\xmc4_scu.h ****   XMC_SCU_CLOCK_SLEEP_MODE_CONFIG_DISABLE_SDMMC = SCU_CLK_SLEEPCR_MMCCR_Msk,//!< XMC_SCU_CLOCK_SLEE
 628:D:\Naukowe\BLDC_workspace\PWM_from_ex\Libraries\XMCLib\inc\xmc4_scu.h **** #endif  
 629:D:\Naukowe\BLDC_workspace\PWM_from_ex\Libraries\XMCLib\inc\xmc4_scu.h **** #if defined(ETH0)
 630:D:\Naukowe\BLDC_workspace\PWM_from_ex\Libraries\XMCLib\inc\xmc4_scu.h ****   XMC_SCU_CLOCK_SLEEP_MODE_CONFIG_DISABLE_ETH = SCU_CLK_SLEEPCR_ETH0CR_Msk,  //!< XMC_SCU_CLOCK_SLE
 631:D:\Naukowe\BLDC_workspace\PWM_from_ex\Libraries\XMCLib\inc\xmc4_scu.h **** #endif  
 632:D:\Naukowe\BLDC_workspace\PWM_from_ex\Libraries\XMCLib\inc\xmc4_scu.h **** #if defined(EBU)
 633:D:\Naukowe\BLDC_workspace\PWM_from_ex\Libraries\XMCLib\inc\xmc4_scu.h ****   XMC_SCU_CLOCK_SLEEP_MODE_CONFIG_DISABLE_EBU = SCU_CLK_SLEEPCR_EBUCR_Msk,  //!< XMC_SCU_CLOCK_SLEE
 634:D:\Naukowe\BLDC_workspace\PWM_from_ex\Libraries\XMCLib\inc\xmc4_scu.h **** #endif  
 635:D:\Naukowe\BLDC_workspace\PWM_from_ex\Libraries\XMCLib\inc\xmc4_scu.h ****   XMC_SCU_CLOCK_SLEEP_MODE_CONFIG_DISABLE_CCU = SCU_CLK_SLEEPCR_CCUCR_Msk,  //!< XMC_SCU_CLOCK_SLEE
 636:D:\Naukowe\BLDC_workspace\PWM_from_ex\Libraries\XMCLib\inc\xmc4_scu.h ****   XMC_SCU_CLOCK_SLEEP_MODE_CONFIG_DISABLE_WDT = SCU_CLK_SLEEPCR_WDTCR_Msk,  //!< XMC_SCU_CLOCK_SLEE
 637:D:\Naukowe\BLDC_workspace\PWM_from_ex\Libraries\XMCLib\inc\xmc4_scu.h **** } XMC_SCU_CLOCK_SLEEP_MODE_CONFIG_t;
 638:D:\Naukowe\BLDC_workspace\PWM_from_ex\Libraries\XMCLib\inc\xmc4_scu.h **** 
 639:D:\Naukowe\BLDC_workspace\PWM_from_ex\Libraries\XMCLib\inc\xmc4_scu.h **** /**
 640:D:\Naukowe\BLDC_workspace\PWM_from_ex\Libraries\XMCLib\inc\xmc4_scu.h ****  *
 641:D:\Naukowe\BLDC_workspace\PWM_from_ex\Libraries\XMCLib\inc\xmc4_scu.h ****  */
 642:D:\Naukowe\BLDC_workspace\PWM_from_ex\Libraries\XMCLib\inc\xmc4_scu.h **** typedef enum XMC_SCU_CLOCK_DEEPSLEEP_MODE_CONFIG
 643:D:\Naukowe\BLDC_workspace\PWM_from_ex\Libraries\XMCLib\inc\xmc4_scu.h **** {
 644:D:\Naukowe\BLDC_workspace\PWM_from_ex\Libraries\XMCLib\inc\xmc4_scu.h ****   XMC_SCU_CLOCK_DEEPSLEEP_MODE_CONFIG_SYSCLK_FOFI = 0,  //!< XMC_SCU_CLOCK_DEEPSLEEP_MODE_CONFIG_SY
 645:D:\Naukowe\BLDC_workspace\PWM_from_ex\Libraries\XMCLib\inc\xmc4_scu.h ****   XMC_SCU_CLOCK_DEEPSLEEP_MODE_CONFIG_SYSCLK_FPLL = SCU_CLK_SLEEPCR_SYSSEL_Msk,  //!< XMC_SCU_CLOCK
 646:D:\Naukowe\BLDC_workspace\PWM_from_ex\Libraries\XMCLib\inc\xmc4_scu.h ****   XMC_SCU_CLOCK_DEEPSLEEP_MODE_CONFIG_FLASH_POWERDOWN = SCU_CLK_DSLEEPCR_FPDN_Msk,//!< XMC_SCU_CLOC
 647:D:\Naukowe\BLDC_workspace\PWM_from_ex\Libraries\XMCLib\inc\xmc4_scu.h ****   XMC_SCU_CLOCK_DEEPSLEEP_MODE_CONFIG_PLL_POWERDOWN = SCU_CLK_DSLEEPCR_PLLPDN_Msk,  //!< XMC_SCU_CL
 648:D:\Naukowe\BLDC_workspace\PWM_from_ex\Libraries\XMCLib\inc\xmc4_scu.h ****   XMC_SCU_CLOCK_DEEPSLEEP_MODE_CONFIG_VCO_POWERDOWN = SCU_CLK_DSLEEPCR_VCOPDN_Msk,  //!< XMC_SCU_CL
 649:D:\Naukowe\BLDC_workspace\PWM_from_ex\Libraries\XMCLib\inc\xmc4_scu.h **** #if defined(USB0)
 650:D:\Naukowe\BLDC_workspace\PWM_from_ex\Libraries\XMCLib\inc\xmc4_scu.h ****   XMC_SCU_CLOCK_DEEPSLEEP_MODE_CONFIG_DISABLE_USB = SCU_CLK_SLEEPCR_USBCR_Msk,  //!< XMC_SCU_CLOCK_
 651:D:\Naukowe\BLDC_workspace\PWM_from_ex\Libraries\XMCLib\inc\xmc4_scu.h **** #endif  
 652:D:\Naukowe\BLDC_workspace\PWM_from_ex\Libraries\XMCLib\inc\xmc4_scu.h **** #if defined(SDMMC)
 653:D:\Naukowe\BLDC_workspace\PWM_from_ex\Libraries\XMCLib\inc\xmc4_scu.h ****   XMC_SCU_CLOCK_DEEPSLEEP_MODE_CONFIG_DISABLE_SDMMC = SCU_CLK_SLEEPCR_MMCCR_Msk,//!< XMC_SCU_CLOCK_
 654:D:\Naukowe\BLDC_workspace\PWM_from_ex\Libraries\XMCLib\inc\xmc4_scu.h **** #endif  
 655:D:\Naukowe\BLDC_workspace\PWM_from_ex\Libraries\XMCLib\inc\xmc4_scu.h **** #if defined(ETH0)
 656:D:\Naukowe\BLDC_workspace\PWM_from_ex\Libraries\XMCLib\inc\xmc4_scu.h ****   XMC_SCU_CLOCK_DEEPSLEEP_MODE_CONFIG_DISABLE_ETH = SCU_CLK_SLEEPCR_ETH0CR_Msk,  //!< XMC_SCU_CLOCK
 657:D:\Naukowe\BLDC_workspace\PWM_from_ex\Libraries\XMCLib\inc\xmc4_scu.h **** #endif  
 658:D:\Naukowe\BLDC_workspace\PWM_from_ex\Libraries\XMCLib\inc\xmc4_scu.h **** #if defined(EBU)
 659:D:\Naukowe\BLDC_workspace\PWM_from_ex\Libraries\XMCLib\inc\xmc4_scu.h ****   XMC_SCU_CLOCK_DEEPSLEEP_MODE_CONFIG_DISABLE_EBU = SCU_CLK_SLEEPCR_EBUCR_Msk,  //!< XMC_SCU_CLOCK_
 660:D:\Naukowe\BLDC_workspace\PWM_from_ex\Libraries\XMCLib\inc\xmc4_scu.h **** #endif  
 661:D:\Naukowe\BLDC_workspace\PWM_from_ex\Libraries\XMCLib\inc\xmc4_scu.h ****   XMC_SCU_CLOCK_DEEPSLEEP_MODE_CONFIG_DISABLE_CCU = SCU_CLK_SLEEPCR_CCUCR_Msk,  //!< XMC_SCU_CLOCK_
 662:D:\Naukowe\BLDC_workspace\PWM_from_ex\Libraries\XMCLib\inc\xmc4_scu.h ****   XMC_SCU_CLOCK_DEEPSLEEP_MODE_CONFIG_DISABLE_WDT = SCU_CLK_SLEEPCR_WDTCR_Msk,  //!< XMC_SCU_CLOCK_
 663:D:\Naukowe\BLDC_workspace\PWM_from_ex\Libraries\XMCLib\inc\xmc4_scu.h **** } XMC_SCU_CLOCK_DEEPSLEEP_MODE_CONFIG_t;
 664:D:\Naukowe\BLDC_workspace\PWM_from_ex\Libraries\XMCLib\inc\xmc4_scu.h **** 
 665:D:\Naukowe\BLDC_workspace\PWM_from_ex\Libraries\XMCLib\inc\xmc4_scu.h **** 
 666:D:\Naukowe\BLDC_workspace\PWM_from_ex\Libraries\XMCLib\inc\xmc4_scu.h **** /**************************************************************************************************
 667:D:\Naukowe\BLDC_workspace\PWM_from_ex\Libraries\XMCLib\inc\xmc4_scu.h ****  * DATA STRUCTURES
 668:D:\Naukowe\BLDC_workspace\PWM_from_ex\Libraries\XMCLib\inc\xmc4_scu.h ****  **************************************************************************************************
 669:D:\Naukowe\BLDC_workspace\PWM_from_ex\Libraries\XMCLib\inc\xmc4_scu.h **** 
 670:D:\Naukowe\BLDC_workspace\PWM_from_ex\Libraries\XMCLib\inc\xmc4_scu.h **** /**
 671:D:\Naukowe\BLDC_workspace\PWM_from_ex\Libraries\XMCLib\inc\xmc4_scu.h ****  *  Defines a data structure for initializing the PLL functional block.
 672:D:\Naukowe\BLDC_workspace\PWM_from_ex\Libraries\XMCLib\inc\xmc4_scu.h ****  *  Structure holds divider values for N-DIV, P-DIV, K1-DIV, K2-DIV in order to generate desired 
 673:D:\Naukowe\BLDC_workspace\PWM_from_ex\Libraries\XMCLib\inc\xmc4_scu.h ****  *  frequency using VCO. It holds the PLL mode of operation either normal or prescaler (VCO bypasse
 674:D:\Naukowe\BLDC_workspace\PWM_from_ex\Libraries\XMCLib\inc\xmc4_scu.h ****  *  Use type \a XMC_SCU_CLOCK_PLL_CONFIG_t for accessing these structure parameters.
 675:D:\Naukowe\BLDC_workspace\PWM_from_ex\Libraries\XMCLib\inc\xmc4_scu.h ****  */
 676:D:\Naukowe\BLDC_workspace\PWM_from_ex\Libraries\XMCLib\inc\xmc4_scu.h **** typedef struct XMC_SCU_CLOCK_SYSPLL_CONFIG
 677:D:\Naukowe\BLDC_workspace\PWM_from_ex\Libraries\XMCLib\inc\xmc4_scu.h **** {
 678:D:\Naukowe\BLDC_workspace\PWM_from_ex\Libraries\XMCLib\inc\xmc4_scu.h ****   uint8_t n_div;                       /**<  PLL N-Divider value. */
 679:D:\Naukowe\BLDC_workspace\PWM_from_ex\Libraries\XMCLib\inc\xmc4_scu.h ****   uint8_t p_div;                       /**<  PLL P-Divider value. */
 680:D:\Naukowe\BLDC_workspace\PWM_from_ex\Libraries\XMCLib\inc\xmc4_scu.h ****   uint8_t k_div;                       /**<  K1-Divider(Prescalar mode) or K2-Divider (Normal mode)
 681:D:\Naukowe\BLDC_workspace\PWM_from_ex\Libraries\XMCLib\inc\xmc4_scu.h ****   XMC_SCU_CLOCK_SYSPLL_MODE_t mode;    /**<  PLL mode of operation. */
 682:D:\Naukowe\BLDC_workspace\PWM_from_ex\Libraries\XMCLib\inc\xmc4_scu.h ****   XMC_SCU_CLOCK_SYSPLLCLKSRC_t clksrc; /**<  PLL divider input frequency. */
 683:D:\Naukowe\BLDC_workspace\PWM_from_ex\Libraries\XMCLib\inc\xmc4_scu.h **** } XMC_SCU_CLOCK_SYSPLL_CONFIG_t;
 684:D:\Naukowe\BLDC_workspace\PWM_from_ex\Libraries\XMCLib\inc\xmc4_scu.h **** 
 685:D:\Naukowe\BLDC_workspace\PWM_from_ex\Libraries\XMCLib\inc\xmc4_scu.h **** /**
 686:D:\Naukowe\BLDC_workspace\PWM_from_ex\Libraries\XMCLib\inc\xmc4_scu.h ****  *  Defines a data structure used for initializing the clock functional block.
 687:D:\Naukowe\BLDC_workspace\PWM_from_ex\Libraries\XMCLib\inc\xmc4_scu.h ****  *  Clock functional block configures clock source needed for various peripheral and its divider va
 688:D:\Naukowe\BLDC_workspace\PWM_from_ex\Libraries\XMCLib\inc\xmc4_scu.h ****  *  Use type \a XMC_SCU_CLOCK_CONFIG_t for accessing these structure parameters.
 689:D:\Naukowe\BLDC_workspace\PWM_from_ex\Libraries\XMCLib\inc\xmc4_scu.h ****  */
 690:D:\Naukowe\BLDC_workspace\PWM_from_ex\Libraries\XMCLib\inc\xmc4_scu.h **** typedef struct XMC_SCU_CLOCK_CONFIG
 691:D:\Naukowe\BLDC_workspace\PWM_from_ex\Libraries\XMCLib\inc\xmc4_scu.h **** {
 692:D:\Naukowe\BLDC_workspace\PWM_from_ex\Libraries\XMCLib\inc\xmc4_scu.h ****   XMC_SCU_CLOCK_SYSPLL_CONFIG_t         syspll_config;      /**< PLL configuration */
 693:D:\Naukowe\BLDC_workspace\PWM_from_ex\Libraries\XMCLib\inc\xmc4_scu.h ****   bool                                  enable_oschp;       /**< Enable external high precision osc
 694:D:\Naukowe\BLDC_workspace\PWM_from_ex\Libraries\XMCLib\inc\xmc4_scu.h ****                                                                  Should be enabled when fOHP has to
 695:D:\Naukowe\BLDC_workspace\PWM_from_ex\Libraries\XMCLib\inc\xmc4_scu.h ****   bool                                  enable_osculp;      /**< Enable external ultra low power os
 696:D:\Naukowe\BLDC_workspace\PWM_from_ex\Libraries\XMCLib\inc\xmc4_scu.h ****                                                                  Should be enabled when fULP has to
 697:D:\Naukowe\BLDC_workspace\PWM_from_ex\Libraries\XMCLib\inc\xmc4_scu.h ****   XMC_SCU_CLOCK_FOFI_CALIBRATION_MODE_t calibration_mode;   /**< Backup clock trimming mode. */
 698:D:\Naukowe\BLDC_workspace\PWM_from_ex\Libraries\XMCLib\inc\xmc4_scu.h ****   XMC_SCU_HIB_STDBYCLKSRC_t             fstdby_clksrc;      /**< Standby clock source. */
 699:D:\Naukowe\BLDC_workspace\PWM_from_ex\Libraries\XMCLib\inc\xmc4_scu.h ****   XMC_SCU_CLOCK_SYSCLKSRC_t             fsys_clksrc;        /**< Choice of system clock. */
 700:D:\Naukowe\BLDC_workspace\PWM_from_ex\Libraries\XMCLib\inc\xmc4_scu.h ****   uint8_t                               fsys_clkdiv;        /**< Ratio of fPLL to fSYS. */
 701:D:\Naukowe\BLDC_workspace\PWM_from_ex\Libraries\XMCLib\inc\xmc4_scu.h ****   uint8_t                               fcpu_clkdiv;        /**< Ratio of fSys to fCPU. */
 702:D:\Naukowe\BLDC_workspace\PWM_from_ex\Libraries\XMCLib\inc\xmc4_scu.h ****   uint8_t                               fccu_clkdiv;        /**< Ratio of fSys to fCCU. */
 703:D:\Naukowe\BLDC_workspace\PWM_from_ex\Libraries\XMCLib\inc\xmc4_scu.h ****   uint8_t                               fperipheral_clkdiv; /**< Ratio of fSYS to fPERI. */
 704:D:\Naukowe\BLDC_workspace\PWM_from_ex\Libraries\XMCLib\inc\xmc4_scu.h **** } const XMC_SCU_CLOCK_CONFIG_t;
 705:D:\Naukowe\BLDC_workspace\PWM_from_ex\Libraries\XMCLib\inc\xmc4_scu.h **** 
 706:D:\Naukowe\BLDC_workspace\PWM_from_ex\Libraries\XMCLib\inc\xmc4_scu.h **** 
 707:D:\Naukowe\BLDC_workspace\PWM_from_ex\Libraries\XMCLib\inc\xmc4_scu.h **** /**************************************************************************************************
 708:D:\Naukowe\BLDC_workspace\PWM_from_ex\Libraries\XMCLib\inc\xmc4_scu.h ****  * API PROTOTYPES
 709:D:\Naukowe\BLDC_workspace\PWM_from_ex\Libraries\XMCLib\inc\xmc4_scu.h ****  **************************************************************************************************
 710:D:\Naukowe\BLDC_workspace\PWM_from_ex\Libraries\XMCLib\inc\xmc4_scu.h **** 
 711:D:\Naukowe\BLDC_workspace\PWM_from_ex\Libraries\XMCLib\inc\xmc4_scu.h **** #ifdef __cplusplus
 712:D:\Naukowe\BLDC_workspace\PWM_from_ex\Libraries\XMCLib\inc\xmc4_scu.h **** extern "C" {
 713:D:\Naukowe\BLDC_workspace\PWM_from_ex\Libraries\XMCLib\inc\xmc4_scu.h **** #endif
 714:D:\Naukowe\BLDC_workspace\PWM_from_ex\Libraries\XMCLib\inc\xmc4_scu.h **** 
 715:D:\Naukowe\BLDC_workspace\PWM_from_ex\Libraries\XMCLib\inc\xmc4_scu.h **** /**
 716:D:\Naukowe\BLDC_workspace\PWM_from_ex\Libraries\XMCLib\inc\xmc4_scu.h ****  * 
 717:D:\Naukowe\BLDC_workspace\PWM_from_ex\Libraries\XMCLib\inc\xmc4_scu.h ****  * @param group   ADC Group to which the channel being monitored belongs to.\n
 718:D:\Naukowe\BLDC_workspace\PWM_from_ex\Libraries\XMCLib\inc\xmc4_scu.h ****  *                 \b Range: 0 or 1.
 719:D:\Naukowe\BLDC_workspace\PWM_from_ex\Libraries\XMCLib\inc\xmc4_scu.h ****  * @param channel  The channel whose voltage range has to be monitored.\n
 720:D:\Naukowe\BLDC_workspace\PWM_from_ex\Libraries\XMCLib\inc\xmc4_scu.h ****  *                 \b Range: 6 or 7. Value identifies the channel in the selected ADC group.
 721:D:\Naukowe\BLDC_workspace\PWM_from_ex\Libraries\XMCLib\inc\xmc4_scu.h ****  *
 722:D:\Naukowe\BLDC_workspace\PWM_from_ex\Libraries\XMCLib\inc\xmc4_scu.h ****  * @return None
 723:D:\Naukowe\BLDC_workspace\PWM_from_ex\Libraries\XMCLib\inc\xmc4_scu.h ****  *
 724:D:\Naukowe\BLDC_workspace\PWM_from_ex\Libraries\XMCLib\inc\xmc4_scu.h ****  * \par<b>Description</b><br>
 725:D:\Naukowe\BLDC_workspace\PWM_from_ex\Libraries\XMCLib\inc\xmc4_scu.h ****  * Enables out of range comparator for the selected ADC group and channel. \n\n
 726:D:\Naukowe\BLDC_workspace\PWM_from_ex\Libraries\XMCLib\inc\xmc4_scu.h ****  * The ADC channel input is compared by Out of Range Comparator (ORC) for overvoltage monitoring
 727:D:\Naukowe\BLDC_workspace\PWM_from_ex\Libraries\XMCLib\inc\xmc4_scu.h ****  * or for detection of out of range analog inputs. ORC must be turned on explicitly
 728:D:\Naukowe\BLDC_workspace\PWM_from_ex\Libraries\XMCLib\inc\xmc4_scu.h ****  * to leverage the auditing feature. ORC is enabled by setting the enable bit in the GORCEN registe
 729:D:\Naukowe\BLDC_workspace\PWM_from_ex\Libraries\XMCLib\inc\xmc4_scu.h ****  * \par<b>Related APIs:</b><BR>
 730:D:\Naukowe\BLDC_workspace\PWM_from_ex\Libraries\XMCLib\inc\xmc4_scu.h ****  * XMC_SCU_DisableOutOfRangeComparator()\n\n\n
 731:D:\Naukowe\BLDC_workspace\PWM_from_ex\Libraries\XMCLib\inc\xmc4_scu.h ****  */
 732:D:\Naukowe\BLDC_workspace\PWM_from_ex\Libraries\XMCLib\inc\xmc4_scu.h **** void XMC_SCU_EnableOutOfRangeComparator(const uint32_t group, const uint32_t channel);
 733:D:\Naukowe\BLDC_workspace\PWM_from_ex\Libraries\XMCLib\inc\xmc4_scu.h **** 
 734:D:\Naukowe\BLDC_workspace\PWM_from_ex\Libraries\XMCLib\inc\xmc4_scu.h **** /**
 735:D:\Naukowe\BLDC_workspace\PWM_from_ex\Libraries\XMCLib\inc\xmc4_scu.h ****  * 
 736:D:\Naukowe\BLDC_workspace\PWM_from_ex\Libraries\XMCLib\inc\xmc4_scu.h ****  * @param group   ADC Group to which the channel being monitored belongs to.\n
 737:D:\Naukowe\BLDC_workspace\PWM_from_ex\Libraries\XMCLib\inc\xmc4_scu.h ****  *                 \b Range: 0 or 1.
 738:D:\Naukowe\BLDC_workspace\PWM_from_ex\Libraries\XMCLib\inc\xmc4_scu.h ****  * @param channel  The channel whose voltage range has to be monitored.\n
 739:D:\Naukowe\BLDC_workspace\PWM_from_ex\Libraries\XMCLib\inc\xmc4_scu.h ****  *                 \b Range: 6 or 7. Value identifies the channel in the selected ADC group.
 740:D:\Naukowe\BLDC_workspace\PWM_from_ex\Libraries\XMCLib\inc\xmc4_scu.h ****  *
 741:D:\Naukowe\BLDC_workspace\PWM_from_ex\Libraries\XMCLib\inc\xmc4_scu.h ****  * @return None
 742:D:\Naukowe\BLDC_workspace\PWM_from_ex\Libraries\XMCLib\inc\xmc4_scu.h ****  *
 743:D:\Naukowe\BLDC_workspace\PWM_from_ex\Libraries\XMCLib\inc\xmc4_scu.h ****  * \par<b>Description</b><br>
 744:D:\Naukowe\BLDC_workspace\PWM_from_ex\Libraries\XMCLib\inc\xmc4_scu.h ****  * Disables the out of range comparator for the selected ADC group and the channel. \n\n
 745:D:\Naukowe\BLDC_workspace\PWM_from_ex\Libraries\XMCLib\inc\xmc4_scu.h ****  * Out of range comparator is disabled by clearing the enable bit in the GORCEN register.
 746:D:\Naukowe\BLDC_workspace\PWM_from_ex\Libraries\XMCLib\inc\xmc4_scu.h ****  * \par<b>Related APIs:</b><BR>
 747:D:\Naukowe\BLDC_workspace\PWM_from_ex\Libraries\XMCLib\inc\xmc4_scu.h ****  * XMC_SCU_EnableOutOfRangeComparator()\n\n\n
 748:D:\Naukowe\BLDC_workspace\PWM_from_ex\Libraries\XMCLib\inc\xmc4_scu.h ****  */
 749:D:\Naukowe\BLDC_workspace\PWM_from_ex\Libraries\XMCLib\inc\xmc4_scu.h **** void XMC_SCU_DisableOutOfRangeComparator(const uint32_t group, const uint32_t channel);
 750:D:\Naukowe\BLDC_workspace\PWM_from_ex\Libraries\XMCLib\inc\xmc4_scu.h **** 
 751:D:\Naukowe\BLDC_workspace\PWM_from_ex\Libraries\XMCLib\inc\xmc4_scu.h **** /**
 752:D:\Naukowe\BLDC_workspace\PWM_from_ex\Libraries\XMCLib\inc\xmc4_scu.h ****  * @return None
 753:D:\Naukowe\BLDC_workspace\PWM_from_ex\Libraries\XMCLib\inc\xmc4_scu.h ****  *
 754:D:\Naukowe\BLDC_workspace\PWM_from_ex\Libraries\XMCLib\inc\xmc4_scu.h ****  * \par<b>Description</b><br>
 755:D:\Naukowe\BLDC_workspace\PWM_from_ex\Libraries\XMCLib\inc\xmc4_scu.h ****  * Enables die temperature measurement by powering the DTS module.\n\n
 756:D:\Naukowe\BLDC_workspace\PWM_from_ex\Libraries\XMCLib\inc\xmc4_scu.h ****  * Die temperature sensor is enabled by setting the PWD bit of DTSCON register.
 757:D:\Naukowe\BLDC_workspace\PWM_from_ex\Libraries\XMCLib\inc\xmc4_scu.h ****  * \par<b>Related APIs:</b><BR>
 758:D:\Naukowe\BLDC_workspace\PWM_from_ex\Libraries\XMCLib\inc\xmc4_scu.h ****  * XMC_SCU_DisableTemperatureSensor(), XMC_SCU_IsTemperatureSensorEnabled(), XMC_SCU_CalibrateTempe
 759:D:\Naukowe\BLDC_workspace\PWM_from_ex\Libraries\XMCLib\inc\xmc4_scu.h ****  * XMC_SCU_StartTemperatureMeasurement(), XMC_SCU_GetTemperatureMeasurement() \n\n\n
 760:D:\Naukowe\BLDC_workspace\PWM_from_ex\Libraries\XMCLib\inc\xmc4_scu.h ****  */
 761:D:\Naukowe\BLDC_workspace\PWM_from_ex\Libraries\XMCLib\inc\xmc4_scu.h **** void XMC_SCU_EnableTemperatureSensor(void);
 762:D:\Naukowe\BLDC_workspace\PWM_from_ex\Libraries\XMCLib\inc\xmc4_scu.h **** 
 763:D:\Naukowe\BLDC_workspace\PWM_from_ex\Libraries\XMCLib\inc\xmc4_scu.h **** /**
 764:D:\Naukowe\BLDC_workspace\PWM_from_ex\Libraries\XMCLib\inc\xmc4_scu.h ****  * @return None
 765:D:\Naukowe\BLDC_workspace\PWM_from_ex\Libraries\XMCLib\inc\xmc4_scu.h ****  *
 766:D:\Naukowe\BLDC_workspace\PWM_from_ex\Libraries\XMCLib\inc\xmc4_scu.h ****  * \par<b>Description</b><br>
 767:D:\Naukowe\BLDC_workspace\PWM_from_ex\Libraries\XMCLib\inc\xmc4_scu.h ****  * Disables die temperature measurement by powering the DTS module off.\n\n
 768:D:\Naukowe\BLDC_workspace\PWM_from_ex\Libraries\XMCLib\inc\xmc4_scu.h ****  * Die temperature sensor is disabled by clearing the PWD bit of DTSCON register.
 769:D:\Naukowe\BLDC_workspace\PWM_from_ex\Libraries\XMCLib\inc\xmc4_scu.h ****  * \par<b>Related APIs:</b><BR>
 770:D:\Naukowe\BLDC_workspace\PWM_from_ex\Libraries\XMCLib\inc\xmc4_scu.h ****  * XMC_SCU_EnableTemperatureSensor(), XMC_SCU_IsTemperatureSensorEnabled(), XMC_SCU_CalibrateTemper
 771:D:\Naukowe\BLDC_workspace\PWM_from_ex\Libraries\XMCLib\inc\xmc4_scu.h ****  * XMC_SCU_StartTemperatureMeasurement(), XMC_SCU_GetTemperatureMeasurement() \n\n\n
 772:D:\Naukowe\BLDC_workspace\PWM_from_ex\Libraries\XMCLib\inc\xmc4_scu.h ****  */
 773:D:\Naukowe\BLDC_workspace\PWM_from_ex\Libraries\XMCLib\inc\xmc4_scu.h **** void XMC_SCU_DisableTemperatureSensor(void);
 774:D:\Naukowe\BLDC_workspace\PWM_from_ex\Libraries\XMCLib\inc\xmc4_scu.h **** 
 775:D:\Naukowe\BLDC_workspace\PWM_from_ex\Libraries\XMCLib\inc\xmc4_scu.h **** /**
 776:D:\Naukowe\BLDC_workspace\PWM_from_ex\Libraries\XMCLib\inc\xmc4_scu.h ****  * @return Status of die temperature sensor. \n
 777:D:\Naukowe\BLDC_workspace\PWM_from_ex\Libraries\XMCLib\inc\xmc4_scu.h ****  *          \b Range: true - if temperature sensor is enabled.\n
 778:D:\Naukowe\BLDC_workspace\PWM_from_ex\Libraries\XMCLib\inc\xmc4_scu.h ****  *                    false - if temperature sensor is disabled.
 779:D:\Naukowe\BLDC_workspace\PWM_from_ex\Libraries\XMCLib\inc\xmc4_scu.h ****  *
 780:D:\Naukowe\BLDC_workspace\PWM_from_ex\Libraries\XMCLib\inc\xmc4_scu.h ****  * \par<b>Description</b><br>
 781:D:\Naukowe\BLDC_workspace\PWM_from_ex\Libraries\XMCLib\inc\xmc4_scu.h ****  * Provides the die temperature sensor power status.\n\n
 782:D:\Naukowe\BLDC_workspace\PWM_from_ex\Libraries\XMCLib\inc\xmc4_scu.h ****  * The status is obtained by reading the PWD bit of DTSCON register.
 783:D:\Naukowe\BLDC_workspace\PWM_from_ex\Libraries\XMCLib\inc\xmc4_scu.h ****  * \par<b>Related APIs:</b><BR>
 784:D:\Naukowe\BLDC_workspace\PWM_from_ex\Libraries\XMCLib\inc\xmc4_scu.h ****  * XMC_SCU_EnableTemperatureSensor(), XMC_SCU_CalibrateTemperatureSensor(),
 785:D:\Naukowe\BLDC_workspace\PWM_from_ex\Libraries\XMCLib\inc\xmc4_scu.h ****  * XMC_SCU_StartTemperatureMeasurement(), XMC_SCU_GetTemperatureMeasurement() \n\n\n
 786:D:\Naukowe\BLDC_workspace\PWM_from_ex\Libraries\XMCLib\inc\xmc4_scu.h ****  */
 787:D:\Naukowe\BLDC_workspace\PWM_from_ex\Libraries\XMCLib\inc\xmc4_scu.h **** bool XMC_SCU_IsTemperatureSensorEnabled(void);
 788:D:\Naukowe\BLDC_workspace\PWM_from_ex\Libraries\XMCLib\inc\xmc4_scu.h **** 
 789:D:\Naukowe\BLDC_workspace\PWM_from_ex\Libraries\XMCLib\inc\xmc4_scu.h **** /**
 790:D:\Naukowe\BLDC_workspace\PWM_from_ex\Libraries\XMCLib\inc\xmc4_scu.h ****  *
 791:D:\Naukowe\BLDC_workspace\PWM_from_ex\Libraries\XMCLib\inc\xmc4_scu.h ****  * @param offset  Offset value for calibrating the DTS result.\n
 792:D:\Naukowe\BLDC_workspace\PWM_from_ex\Libraries\XMCLib\inc\xmc4_scu.h ****  *                \b Range: 0 to 127.
 793:D:\Naukowe\BLDC_workspace\PWM_from_ex\Libraries\XMCLib\inc\xmc4_scu.h ****  * @param gain    Gain value for calibrating the DTS conversion result.\n
 794:D:\Naukowe\BLDC_workspace\PWM_from_ex\Libraries\XMCLib\inc\xmc4_scu.h ****  *                \b Range: 0 to 63.
 795:D:\Naukowe\BLDC_workspace\PWM_from_ex\Libraries\XMCLib\inc\xmc4_scu.h ****  *
 796:D:\Naukowe\BLDC_workspace\PWM_from_ex\Libraries\XMCLib\inc\xmc4_scu.h ****  * @return None
 797:D:\Naukowe\BLDC_workspace\PWM_from_ex\Libraries\XMCLib\inc\xmc4_scu.h ****  *
 798:D:\Naukowe\BLDC_workspace\PWM_from_ex\Libraries\XMCLib\inc\xmc4_scu.h ****  * \par<b>Description</b><br>
 799:D:\Naukowe\BLDC_workspace\PWM_from_ex\Libraries\XMCLib\inc\xmc4_scu.h ****  * Calibrates the measurement of temperature by configuring the values of offset and gain of \a DTS
 800:D:\Naukowe\BLDC_workspace\PWM_from_ex\Libraries\XMCLib\inc\xmc4_scu.h ****  * Allows to improve the accuracy of the temperature measurement with the adjustment of \a OFFSET a
 801:D:\Naukowe\BLDC_workspace\PWM_from_ex\Libraries\XMCLib\inc\xmc4_scu.h ****  * in the \a DTSCON register.
 802:D:\Naukowe\BLDC_workspace\PWM_from_ex\Libraries\XMCLib\inc\xmc4_scu.h ****  * Offset adjustment is defined as a shift of the conversion result. The range of the offset adjust
 803:D:\Naukowe\BLDC_workspace\PWM_from_ex\Libraries\XMCLib\inc\xmc4_scu.h ****  * resolution that corresponds to +/- 12.5C. The offset value gets added to the measure result. 
 804:D:\Naukowe\BLDC_workspace\PWM_from_ex\Libraries\XMCLib\inc\xmc4_scu.h ****  * Offset is considered as a signed value.
 805:D:\Naukowe\BLDC_workspace\PWM_from_ex\Libraries\XMCLib\inc\xmc4_scu.h ****  * Gain adjustment helps in minimizing gain error. When the \a gain value is 0, result is generated
 806:D:\Naukowe\BLDC_workspace\PWM_from_ex\Libraries\XMCLib\inc\xmc4_scu.h ****  * When the \a gain value is 63, result is generated with least gain, i.e, \a RESULT - 63 at the hi
 807:D:\Naukowe\BLDC_workspace\PWM_from_ex\Libraries\XMCLib\inc\xmc4_scu.h ****  * It is recommended to use following steps:\n
 808:D:\Naukowe\BLDC_workspace\PWM_from_ex\Libraries\XMCLib\inc\xmc4_scu.h ****  * - Call \a XMC_SCU_StopTempMeasurement to stop temperature measurement if it was started previous
 809:D:\Naukowe\BLDC_workspace\PWM_from_ex\Libraries\XMCLib\inc\xmc4_scu.h ****  * - Call \a XMC_SCU_CalibrateTempMonitor with desired offset and gain calibration values to the DT
 810:D:\Naukowe\BLDC_workspace\PWM_from_ex\Libraries\XMCLib\inc\xmc4_scu.h ****  * - Call \a XMC_SCU_SetRawTempLimits with desired lower and upper temperature threshold limit valu
 811:D:\Naukowe\BLDC_workspace\PWM_from_ex\Libraries\XMCLib\inc\xmc4_scu.h ****  * - Call \a XMC_SCU_StartTempMeasurement to start temperature measurement.\n
 812:D:\Naukowe\BLDC_workspace\PWM_from_ex\Libraries\XMCLib\inc\xmc4_scu.h ****  * - Check whether Die Temperature Sensor (DTS) is busy in conversion by calling \a XMC_SCU_IsTempe
 813:D:\Naukowe\BLDC_workspace\PWM_from_ex\Libraries\XMCLib\inc\xmc4_scu.h ****  * conversion complete.\n
 814:D:\Naukowe\BLDC_workspace\PWM_from_ex\Libraries\XMCLib\inc\xmc4_scu.h ****  * - Read the die temperature value using \a XMC_SCU_GetTemperatureMeasurement API.
 815:D:\Naukowe\BLDC_workspace\PWM_from_ex\Libraries\XMCLib\inc\xmc4_scu.h ****  * \par<b>Related APIs:</b><BR>
 816:D:\Naukowe\BLDC_workspace\PWM_from_ex\Libraries\XMCLib\inc\xmc4_scu.h ****  * XMC_SCU_EnableTemperatureSensor(),
 817:D:\Naukowe\BLDC_workspace\PWM_from_ex\Libraries\XMCLib\inc\xmc4_scu.h ****  * XMC_SCU_StartTemperatureMeasurement(), XMC_SCU_GetTemperatureMeasurement() \n\n\n
 818:D:\Naukowe\BLDC_workspace\PWM_from_ex\Libraries\XMCLib\inc\xmc4_scu.h ****  */
 819:D:\Naukowe\BLDC_workspace\PWM_from_ex\Libraries\XMCLib\inc\xmc4_scu.h **** void XMC_SCU_CalibrateTemperatureSensor(uint32_t offset, uint32_t gain);
 820:D:\Naukowe\BLDC_workspace\PWM_from_ex\Libraries\XMCLib\inc\xmc4_scu.h **** 
 821:D:\Naukowe\BLDC_workspace\PWM_from_ex\Libraries\XMCLib\inc\xmc4_scu.h **** /**
 822:D:\Naukowe\BLDC_workspace\PWM_from_ex\Libraries\XMCLib\inc\xmc4_scu.h ****  * @return XMC_SCU_STATUS_t  Result of starting the temperature measurement.\n
 823:D:\Naukowe\BLDC_workspace\PWM_from_ex\Libraries\XMCLib\inc\xmc4_scu.h ****  *                           \b Range: \n 
 824:D:\Naukowe\BLDC_workspace\PWM_from_ex\Libraries\XMCLib\inc\xmc4_scu.h ****  *                              XMC_SCU_STATUS_OK if the measurement is started successfully.\n
 825:D:\Naukowe\BLDC_workspace\PWM_from_ex\Libraries\XMCLib\inc\xmc4_scu.h ****  *                              XMC_SCU_STATUS_ERROR if temperature sensor is not enabled.\n
 826:D:\Naukowe\BLDC_workspace\PWM_from_ex\Libraries\XMCLib\inc\xmc4_scu.h ****  *                              XMC_SCU_STATUS_BUSY if temperature sensor is busy measuring the tem
 827:D:\Naukowe\BLDC_workspace\PWM_from_ex\Libraries\XMCLib\inc\xmc4_scu.h ****  *
 828:D:\Naukowe\BLDC_workspace\PWM_from_ex\Libraries\XMCLib\inc\xmc4_scu.h ****  *
 829:D:\Naukowe\BLDC_workspace\PWM_from_ex\Libraries\XMCLib\inc\xmc4_scu.h ****  * \par<b>Description</b><br>
 830:D:\Naukowe\BLDC_workspace\PWM_from_ex\Libraries\XMCLib\inc\xmc4_scu.h ****  * Starts die temperature measurement using internal temperature sensor.\n\n
 831:D:\Naukowe\BLDC_workspace\PWM_from_ex\Libraries\XMCLib\inc\xmc4_scu.h ****  * The API checks if the temperature sensor is enabled and is not busy in measurement.\n
 832:D:\Naukowe\BLDC_workspace\PWM_from_ex\Libraries\XMCLib\inc\xmc4_scu.h ****  * It is recommended to use following steps:\n
 833:D:\Naukowe\BLDC_workspace\PWM_from_ex\Libraries\XMCLib\inc\xmc4_scu.h ****  * - Call \a XMC_SCU_StopTempMeasurement to stop temperature measurement if it was started previous
 834:D:\Naukowe\BLDC_workspace\PWM_from_ex\Libraries\XMCLib\inc\xmc4_scu.h ****  * - Call \a XMC_SCU_SetRawTempLimits with desired lower and upper temperature threshold limit valu
 835:D:\Naukowe\BLDC_workspace\PWM_from_ex\Libraries\XMCLib\inc\xmc4_scu.h ****  * - Call \a XMC_SCU_StartTempMeasurement to start temperature measurement.\n
 836:D:\Naukowe\BLDC_workspace\PWM_from_ex\Libraries\XMCLib\inc\xmc4_scu.h ****  * - Check whether Die Temperature Sensor (DTS) is busy in conversion by calling \a XMC_SCU_IsTempe
 837:D:\Naukowe\BLDC_workspace\PWM_from_ex\Libraries\XMCLib\inc\xmc4_scu.h ****  * conversion complete.\n
 838:D:\Naukowe\BLDC_workspace\PWM_from_ex\Libraries\XMCLib\inc\xmc4_scu.h ****  * - Read the die temperature value using \a XMC_SCU_GetTemperatureMeasurement API.
 839:D:\Naukowe\BLDC_workspace\PWM_from_ex\Libraries\XMCLib\inc\xmc4_scu.h ****  * \par<b>Related APIs:</b><BR>
 840:D:\Naukowe\BLDC_workspace\PWM_from_ex\Libraries\XMCLib\inc\xmc4_scu.h ****  * XMC_SCU_EnableTemperatureSensor(), XMC_SCU_CalibrateTemperatureSensor(),
 841:D:\Naukowe\BLDC_workspace\PWM_from_ex\Libraries\XMCLib\inc\xmc4_scu.h ****  * XMC_SCU_GetTemperatureMeasurement() \n\n\n
 842:D:\Naukowe\BLDC_workspace\PWM_from_ex\Libraries\XMCLib\inc\xmc4_scu.h ****  */
 843:D:\Naukowe\BLDC_workspace\PWM_from_ex\Libraries\XMCLib\inc\xmc4_scu.h **** XMC_SCU_STATUS_t XMC_SCU_StartTemperatureMeasurement(void);
 844:D:\Naukowe\BLDC_workspace\PWM_from_ex\Libraries\XMCLib\inc\xmc4_scu.h **** 
 845:D:\Naukowe\BLDC_workspace\PWM_from_ex\Libraries\XMCLib\inc\xmc4_scu.h **** 
 846:D:\Naukowe\BLDC_workspace\PWM_from_ex\Libraries\XMCLib\inc\xmc4_scu.h **** /**
 847:D:\Naukowe\BLDC_workspace\PWM_from_ex\Libraries\XMCLib\inc\xmc4_scu.h ****  *
 848:D:\Naukowe\BLDC_workspace\PWM_from_ex\Libraries\XMCLib\inc\xmc4_scu.h ****  * @return uint32_t  Measured temperature value.\n
 849:D:\Naukowe\BLDC_workspace\PWM_from_ex\Libraries\XMCLib\inc\xmc4_scu.h ****  *              \b Range: Valid temperature range is 0 to 1023. \n
 850:D:\Naukowe\BLDC_workspace\PWM_from_ex\Libraries\XMCLib\inc\xmc4_scu.h ****  *              If sensor is not enabled, 0x7FFFFFFFH is returned.
 851:D:\Naukowe\BLDC_workspace\PWM_from_ex\Libraries\XMCLib\inc\xmc4_scu.h ****  *
 852:D:\Naukowe\BLDC_workspace\PWM_from_ex\Libraries\XMCLib\inc\xmc4_scu.h ****  * \par<b>Description</b><br>
 853:D:\Naukowe\BLDC_workspace\PWM_from_ex\Libraries\XMCLib\inc\xmc4_scu.h ****  * Reads the measured value of die temperature.\n\n
 854:D:\Naukowe\BLDC_workspace\PWM_from_ex\Libraries\XMCLib\inc\xmc4_scu.h ****  * Temperature measurement result is read from \a RESULT bit field of \a DTSSTAT register.
 855:D:\Naukowe\BLDC_workspace\PWM_from_ex\Libraries\XMCLib\inc\xmc4_scu.h ****  * \par<b>Related APIs:</b><BR>
 856:D:\Naukowe\BLDC_workspace\PWM_from_ex\Libraries\XMCLib\inc\xmc4_scu.h ****  * XMC_SCU_IsTemperatureSensorBusy() \n\n\n
 857:D:\Naukowe\BLDC_workspace\PWM_from_ex\Libraries\XMCLib\inc\xmc4_scu.h ****  */
 858:D:\Naukowe\BLDC_workspace\PWM_from_ex\Libraries\XMCLib\inc\xmc4_scu.h **** uint32_t XMC_SCU_GetTemperatureMeasurement(void);
 859:D:\Naukowe\BLDC_workspace\PWM_from_ex\Libraries\XMCLib\inc\xmc4_scu.h **** 
 860:D:\Naukowe\BLDC_workspace\PWM_from_ex\Libraries\XMCLib\inc\xmc4_scu.h **** /**
 861:D:\Naukowe\BLDC_workspace\PWM_from_ex\Libraries\XMCLib\inc\xmc4_scu.h ****  * @return bool  Indicates if the die temperature sensor is busy.\n
 862:D:\Naukowe\BLDC_workspace\PWM_from_ex\Libraries\XMCLib\inc\xmc4_scu.h ****  *                    \b Range: \a true if sensor is busy in temperature measurement.
 863:D:\Naukowe\BLDC_workspace\PWM_from_ex\Libraries\XMCLib\inc\xmc4_scu.h ****  *                    \a false if sensor is free and can accept a new request for measurement.
 864:D:\Naukowe\BLDC_workspace\PWM_from_ex\Libraries\XMCLib\inc\xmc4_scu.h ****  *
 865:D:\Naukowe\BLDC_workspace\PWM_from_ex\Libraries\XMCLib\inc\xmc4_scu.h ****  * \par<b>Description</b><br>
 866:D:\Naukowe\BLDC_workspace\PWM_from_ex\Libraries\XMCLib\inc\xmc4_scu.h ****  * Checks whether Die Temperature Sensor (DTS) is busy in temperature measurement.\n\n
 867:D:\Naukowe\BLDC_workspace\PWM_from_ex\Libraries\XMCLib\inc\xmc4_scu.h ****  * The status is read from the \a BUSY bit field of the \a DTSSTAT register.
 868:D:\Naukowe\BLDC_workspace\PWM_from_ex\Libraries\XMCLib\inc\xmc4_scu.h ****  * \par<b>Related APIs:</b><BR>
 869:D:\Naukowe\BLDC_workspace\PWM_from_ex\Libraries\XMCLib\inc\xmc4_scu.h ****  * XMC_SCU_GetTemperatureMeasurement() \n\n\n
 870:D:\Naukowe\BLDC_workspace\PWM_from_ex\Libraries\XMCLib\inc\xmc4_scu.h ****  */
 871:D:\Naukowe\BLDC_workspace\PWM_from_ex\Libraries\XMCLib\inc\xmc4_scu.h **** bool XMC_SCU_IsTemperatureSensorBusy(void);
 872:D:\Naukowe\BLDC_workspace\PWM_from_ex\Libraries\XMCLib\inc\xmc4_scu.h **** 
 873:D:\Naukowe\BLDC_workspace\PWM_from_ex\Libraries\XMCLib\inc\xmc4_scu.h **** /**
 874:D:\Naukowe\BLDC_workspace\PWM_from_ex\Libraries\XMCLib\inc\xmc4_scu.h ****  * @return bool Status of die temperature sensor whether it is ready to start measurement. \n
 875:D:\Naukowe\BLDC_workspace\PWM_from_ex\Libraries\XMCLib\inc\xmc4_scu.h ****  *          \b Range: \n \a true if temperature sensor is ready to start measurement. \n
 876:D:\Naukowe\BLDC_workspace\PWM_from_ex\Libraries\XMCLib\inc\xmc4_scu.h ****  *          \a false if temperature sensor is not ready to start measurement.
 877:D:\Naukowe\BLDC_workspace\PWM_from_ex\Libraries\XMCLib\inc\xmc4_scu.h ****  *
 878:D:\Naukowe\BLDC_workspace\PWM_from_ex\Libraries\XMCLib\inc\xmc4_scu.h ****  * \par<b>Description</b><br>
 879:D:\Naukowe\BLDC_workspace\PWM_from_ex\Libraries\XMCLib\inc\xmc4_scu.h ****  * Checks if the die temperature sensor is ready to start a measurement\n\n
 880:D:\Naukowe\BLDC_workspace\PWM_from_ex\Libraries\XMCLib\inc\xmc4_scu.h ****  * The status is obtained by reading \a RDY bit of \a DTSSTAT register. It is recommended
 881:D:\Naukowe\BLDC_workspace\PWM_from_ex\Libraries\XMCLib\inc\xmc4_scu.h ****  * to check the ready status of die temperature sensor before starting it.
 882:D:\Naukowe\BLDC_workspace\PWM_from_ex\Libraries\XMCLib\inc\xmc4_scu.h ****  * \par<b>Related APIs:</b><BR>
 883:D:\Naukowe\BLDC_workspace\PWM_from_ex\Libraries\XMCLib\inc\xmc4_scu.h ****  * XMC_SCU_StartTemperatureMeasurement(), XMC_SCU_IsTemperatureSensorBusy() \n\n\n
 884:D:\Naukowe\BLDC_workspace\PWM_from_ex\Libraries\XMCLib\inc\xmc4_scu.h ****  */
 885:D:\Naukowe\BLDC_workspace\PWM_from_ex\Libraries\XMCLib\inc\xmc4_scu.h **** bool XMC_SCU_IsTemperatureSensorReady(void);
 886:D:\Naukowe\BLDC_workspace\PWM_from_ex\Libraries\XMCLib\inc\xmc4_scu.h **** 
 887:D:\Naukowe\BLDC_workspace\PWM_from_ex\Libraries\XMCLib\inc\xmc4_scu.h **** #if (UC_SERIES != XMC45)
 888:D:\Naukowe\BLDC_workspace\PWM_from_ex\Libraries\XMCLib\inc\xmc4_scu.h **** /**
 889:D:\Naukowe\BLDC_workspace\PWM_from_ex\Libraries\XMCLib\inc\xmc4_scu.h ****  * @return bool  Indicates if the measured die temperature value has exceeded the configured upper 
 890:D:\Naukowe\BLDC_workspace\PWM_from_ex\Libraries\XMCLib\inc\xmc4_scu.h ****  *              \b Range: \a true if the temperature value has exceeded the configured upper limit.
 891:D:\Naukowe\BLDC_workspace\PWM_from_ex\Libraries\XMCLib\inc\xmc4_scu.h ****  *              if the temperature value is less than the configured upper limit.
 892:D:\Naukowe\BLDC_workspace\PWM_from_ex\Libraries\XMCLib\inc\xmc4_scu.h ****  *
 893:D:\Naukowe\BLDC_workspace\PWM_from_ex\Libraries\XMCLib\inc\xmc4_scu.h ****  * \par<b>Description</b><br>
 894:D:\Naukowe\BLDC_workspace\PWM_from_ex\Libraries\XMCLib\inc\xmc4_scu.h ****  * Checks if the measured temperature has exceeded the configured upper limit of temperature.\n\n
 895:D:\Naukowe\BLDC_workspace\PWM_from_ex\Libraries\XMCLib\inc\xmc4_scu.h ****  * The API checks \a OVERFL bit (Upper Limit Overflow Status bit) of \a DTEMPALARM register.
 896:D:\Naukowe\BLDC_workspace\PWM_from_ex\Libraries\XMCLib\inc\xmc4_scu.h ****  * The \a OVERFL bit will be set if the measured temperature has exceeded the limit configured in 
 897:D:\Naukowe\BLDC_workspace\PWM_from_ex\Libraries\XMCLib\inc\xmc4_scu.h ****  * the bitfield \a UPPER in the \a DTEMPLIM register.
 898:D:\Naukowe\BLDC_workspace\PWM_from_ex\Libraries\XMCLib\inc\xmc4_scu.h ****  * \par<b>Related APIs:</b><BR>
 899:D:\Naukowe\BLDC_workspace\PWM_from_ex\Libraries\XMCLib\inc\xmc4_scu.h ****  * XMC_SCU_SetRawTempLimits(),XMC_SCU_LowTemperature() \n\n\n
 900:D:\Naukowe\BLDC_workspace\PWM_from_ex\Libraries\XMCLib\inc\xmc4_scu.h ****  */
 901:D:\Naukowe\BLDC_workspace\PWM_from_ex\Libraries\XMCLib\inc\xmc4_scu.h **** bool XMC_SCU_HighTemperature(void);
 902:D:\Naukowe\BLDC_workspace\PWM_from_ex\Libraries\XMCLib\inc\xmc4_scu.h **** 
 903:D:\Naukowe\BLDC_workspace\PWM_from_ex\Libraries\XMCLib\inc\xmc4_scu.h **** /**
 904:D:\Naukowe\BLDC_workspace\PWM_from_ex\Libraries\XMCLib\inc\xmc4_scu.h ****  *
 905:D:\Naukowe\BLDC_workspace\PWM_from_ex\Libraries\XMCLib\inc\xmc4_scu.h ****  * @param lower_temp  Lower threshold of die temperature. If measured temperature falls below this 
 906:D:\Naukowe\BLDC_workspace\PWM_from_ex\Libraries\XMCLib\inc\xmc4_scu.h ****  *                    alarm bit will be set in \a UNDERFL bit field of \a DTEMPALARM register.
 907:D:\Naukowe\BLDC_workspace\PWM_from_ex\Libraries\XMCLib\inc\xmc4_scu.h ****  * @param upper_temp  Upper threshold of die temperature. If measured temperature exceeds this valu
 908:D:\Naukowe\BLDC_workspace\PWM_from_ex\Libraries\XMCLib\inc\xmc4_scu.h ****  *                    alarm bit will be set in \a OVERFL bit field of \a DTEMPALARM register.
 909:D:\Naukowe\BLDC_workspace\PWM_from_ex\Libraries\XMCLib\inc\xmc4_scu.h ****  *
 910:D:\Naukowe\BLDC_workspace\PWM_from_ex\Libraries\XMCLib\inc\xmc4_scu.h ****  * @return None
 911:D:\Naukowe\BLDC_workspace\PWM_from_ex\Libraries\XMCLib\inc\xmc4_scu.h ****  *
 912:D:\Naukowe\BLDC_workspace\PWM_from_ex\Libraries\XMCLib\inc\xmc4_scu.h ****  * \par<b>Description</b><br>
 913:D:\Naukowe\BLDC_workspace\PWM_from_ex\Libraries\XMCLib\inc\xmc4_scu.h ****  * Configures the lower and upper threshold of die temperature.\n\n
 914:D:\Naukowe\BLDC_workspace\PWM_from_ex\Libraries\XMCLib\inc\xmc4_scu.h ****  * API configures \a DTEMPLIM register for upper and lower die temperature threshold limits.
 915:D:\Naukowe\BLDC_workspace\PWM_from_ex\Libraries\XMCLib\inc\xmc4_scu.h ****  * When the measured temperature is outside the range defined by the limits, alarm bits \a UNDERFL 
 916:D:\Naukowe\BLDC_workspace\PWM_from_ex\Libraries\XMCLib\inc\xmc4_scu.h ****  * will be set in the register \a DTEMPALARM.\n
 917:D:\Naukowe\BLDC_workspace\PWM_from_ex\Libraries\XMCLib\inc\xmc4_scu.h ****  * It is recommended to use following steps:\n
 918:D:\Naukowe\BLDC_workspace\PWM_from_ex\Libraries\XMCLib\inc\xmc4_scu.h ****  * - Call \a XMC_SCU_StopTempMeasurement to stop temperature measurement if it was started previous
 919:D:\Naukowe\BLDC_workspace\PWM_from_ex\Libraries\XMCLib\inc\xmc4_scu.h ****  * - Call \a XMC_SCU_SetRawTempLimits with desired lower and upper temperature threshold limit valu
 920:D:\Naukowe\BLDC_workspace\PWM_from_ex\Libraries\XMCLib\inc\xmc4_scu.h ****  * - Call \a XMC_SCU_StartTempMeasurement to start temperature measurement.\n
 921:D:\Naukowe\BLDC_workspace\PWM_from_ex\Libraries\XMCLib\inc\xmc4_scu.h ****  * - Use \a XMC_SCU_HighTemperature() and XMC_SCU_LowTemperature() to monitor the temperature.\n
 922:D:\Naukowe\BLDC_workspace\PWM_from_ex\Libraries\XMCLib\inc\xmc4_scu.h ****  * \par<b>Related APIs:</b><BR>
 923:D:\Naukowe\BLDC_workspace\PWM_from_ex\Libraries\XMCLib\inc\xmc4_scu.h ****  * XMC_SCU_HighTemperature(), XMC_SCU_LowTemperature() \n\n\n
 924:D:\Naukowe\BLDC_workspace\PWM_from_ex\Libraries\XMCLib\inc\xmc4_scu.h ****  */
 925:D:\Naukowe\BLDC_workspace\PWM_from_ex\Libraries\XMCLib\inc\xmc4_scu.h **** void XMC_SCU_SetRawTempLimits(const uint32_t lower_temp, const uint32_t upper_temp);
 926:D:\Naukowe\BLDC_workspace\PWM_from_ex\Libraries\XMCLib\inc\xmc4_scu.h **** 
 927:D:\Naukowe\BLDC_workspace\PWM_from_ex\Libraries\XMCLib\inc\xmc4_scu.h **** /**
 928:D:\Naukowe\BLDC_workspace\PWM_from_ex\Libraries\XMCLib\inc\xmc4_scu.h ****  * @return bool  Indicates if the measured die temperature value has dropped below the configured l
 929:D:\Naukowe\BLDC_workspace\PWM_from_ex\Libraries\XMCLib\inc\xmc4_scu.h ****  *              \b Range: \a true if the temperature value has dropped below the configured lower l
 930:D:\Naukowe\BLDC_workspace\PWM_from_ex\Libraries\XMCLib\inc\xmc4_scu.h ****  *              if the temperature value is higher than the configured lower limit.
 931:D:\Naukowe\BLDC_workspace\PWM_from_ex\Libraries\XMCLib\inc\xmc4_scu.h ****  *
 932:D:\Naukowe\BLDC_workspace\PWM_from_ex\Libraries\XMCLib\inc\xmc4_scu.h ****  * \par<b>Description</b><br>
 933:D:\Naukowe\BLDC_workspace\PWM_from_ex\Libraries\XMCLib\inc\xmc4_scu.h ****  * Checks if the measured temperature has dropped below the configured lower limit of temperature.\
 934:D:\Naukowe\BLDC_workspace\PWM_from_ex\Libraries\XMCLib\inc\xmc4_scu.h ****  * The API checks \a UNDERFL bit (Lower LimitUnderflow Status bit) of \a DTEMPALARM register.
 935:D:\Naukowe\BLDC_workspace\PWM_from_ex\Libraries\XMCLib\inc\xmc4_scu.h ****  * The \a UNDERFL bit will be set if the measured temperature has dropped below the limit configure
 936:D:\Naukowe\BLDC_workspace\PWM_from_ex\Libraries\XMCLib\inc\xmc4_scu.h ****  * the bitfield \a LOWER in the \a DTEMPLIM register.
 937:D:\Naukowe\BLDC_workspace\PWM_from_ex\Libraries\XMCLib\inc\xmc4_scu.h ****  * \par<b>Related APIs:</b><BR>
 938:D:\Naukowe\BLDC_workspace\PWM_from_ex\Libraries\XMCLib\inc\xmc4_scu.h ****  * XMC_SCU_SetRawTempLimits(),XMC_SCU_HighTemperature() \n\n\n
 939:D:\Naukowe\BLDC_workspace\PWM_from_ex\Libraries\XMCLib\inc\xmc4_scu.h ****  */
 940:D:\Naukowe\BLDC_workspace\PWM_from_ex\Libraries\XMCLib\inc\xmc4_scu.h **** bool XMC_SCU_LowTemperature(void);
 941:D:\Naukowe\BLDC_workspace\PWM_from_ex\Libraries\XMCLib\inc\xmc4_scu.h **** #endif
 942:D:\Naukowe\BLDC_workspace\PWM_from_ex\Libraries\XMCLib\inc\xmc4_scu.h **** 
 943:D:\Naukowe\BLDC_workspace\PWM_from_ex\Libraries\XMCLib\inc\xmc4_scu.h **** /**
 944:D:\Naukowe\BLDC_workspace\PWM_from_ex\Libraries\XMCLib\inc\xmc4_scu.h ****  * @return uint32_t Configured boot mode for the device.\n
 945:D:\Naukowe\BLDC_workspace\PWM_from_ex\Libraries\XMCLib\inc\xmc4_scu.h ****  *        \b Range: Use type @ref XMC_SCU_BOOTMODE_t for enumeration of different boot modes.
 946:D:\Naukowe\BLDC_workspace\PWM_from_ex\Libraries\XMCLib\inc\xmc4_scu.h ****  *
 947:D:\Naukowe\BLDC_workspace\PWM_from_ex\Libraries\XMCLib\inc\xmc4_scu.h ****  * \par<b>Description</b><br>
 948:D:\Naukowe\BLDC_workspace\PWM_from_ex\Libraries\XMCLib\inc\xmc4_scu.h ****  * Provides the boot mode configured for the device.\n\n
 949:D:\Naukowe\BLDC_workspace\PWM_from_ex\Libraries\XMCLib\inc\xmc4_scu.h ****  * The boot mode is read from the \a STCON register bit field \a SWCON.
 950:D:\Naukowe\BLDC_workspace\PWM_from_ex\Libraries\XMCLib\inc\xmc4_scu.h ****  *
 951:D:\Naukowe\BLDC_workspace\PWM_from_ex\Libraries\XMCLib\inc\xmc4_scu.h ****  * \par<b>Related APIs:</b><BR>
 952:D:\Naukowe\BLDC_workspace\PWM_from_ex\Libraries\XMCLib\inc\xmc4_scu.h ****  * XMC_SCU_SetBootMode() \n\n\n
 953:D:\Naukowe\BLDC_workspace\PWM_from_ex\Libraries\XMCLib\inc\xmc4_scu.h ****  */
 954:D:\Naukowe\BLDC_workspace\PWM_from_ex\Libraries\XMCLib\inc\xmc4_scu.h **** uint32_t XMC_SCU_GetBootMode(void);
 955:D:\Naukowe\BLDC_workspace\PWM_from_ex\Libraries\XMCLib\inc\xmc4_scu.h **** 
 956:D:\Naukowe\BLDC_workspace\PWM_from_ex\Libraries\XMCLib\inc\xmc4_scu.h **** /**
 957:D:\Naukowe\BLDC_workspace\PWM_from_ex\Libraries\XMCLib\inc\xmc4_scu.h ****  *
 958:D:\Naukowe\BLDC_workspace\PWM_from_ex\Libraries\XMCLib\inc\xmc4_scu.h ****  * @param mode Boot mode to be configured for the device.\n
 959:D:\Naukowe\BLDC_workspace\PWM_from_ex\Libraries\XMCLib\inc\xmc4_scu.h ****  *        \b Range: Use type @ref XMC_SCU_BOOTMODE_t for selecting the boot mode.
 960:D:\Naukowe\BLDC_workspace\PWM_from_ex\Libraries\XMCLib\inc\xmc4_scu.h ****  *
 961:D:\Naukowe\BLDC_workspace\PWM_from_ex\Libraries\XMCLib\inc\xmc4_scu.h ****  * @return None
 962:D:\Naukowe\BLDC_workspace\PWM_from_ex\Libraries\XMCLib\inc\xmc4_scu.h ****  *
 963:D:\Naukowe\BLDC_workspace\PWM_from_ex\Libraries\XMCLib\inc\xmc4_scu.h ****  * \par<b>Description</b><br>
 964:D:\Naukowe\BLDC_workspace\PWM_from_ex\Libraries\XMCLib\inc\xmc4_scu.h ****  * Configures the desired boot mode for the device.\n\n
 965:D:\Naukowe\BLDC_workspace\PWM_from_ex\Libraries\XMCLib\inc\xmc4_scu.h ****  * The XMC4 series devices support multiple boot modes. A running application can set a desired boo
 966:D:\Naukowe\BLDC_workspace\PWM_from_ex\Libraries\XMCLib\inc\xmc4_scu.h ****  * launch it by means of software reset. Switching of boot modes should be handled carefully. User 
 967:D:\Naukowe\BLDC_workspace\PWM_from_ex\Libraries\XMCLib\inc\xmc4_scu.h ****  * the initial boot sequence is executed. A stable execution environment should be maintained when 
 968:D:\Naukowe\BLDC_workspace\PWM_from_ex\Libraries\XMCLib\inc\xmc4_scu.h ****  * eventually handed over to the application program.\n
 969:D:\Naukowe\BLDC_workspace\PWM_from_ex\Libraries\XMCLib\inc\xmc4_scu.h ****  * It is recommended to use following steps to launch requested bootmode:\n
 970:D:\Naukowe\BLDC_workspace\PWM_from_ex\Libraries\XMCLib\inc\xmc4_scu.h ****  * - Call \a XMC_SCU_SetBootMode() with desired boot mode value.\n
 971:D:\Naukowe\BLDC_workspace\PWM_from_ex\Libraries\XMCLib\inc\xmc4_scu.h ****  * - Trigger a software reset using system reset request by enabling a bit \a SYSRESETREQ of AIRCR 
 972:D:\Naukowe\BLDC_workspace\PWM_from_ex\Libraries\XMCLib\inc\xmc4_scu.h ****  *   (PPB->AIRCR |= PPB_AIRCR_SYSRESETREQ_Msk).\n
 973:D:\Naukowe\BLDC_workspace\PWM_from_ex\Libraries\XMCLib\inc\xmc4_scu.h ****  * \par<b>Related APIs:</b><BR>
 974:D:\Naukowe\BLDC_workspace\PWM_from_ex\Libraries\XMCLib\inc\xmc4_scu.h ****  * XMC_SCU_GetBootMode() \n\n\n
 975:D:\Naukowe\BLDC_workspace\PWM_from_ex\Libraries\XMCLib\inc\xmc4_scu.h ****  */
 976:D:\Naukowe\BLDC_workspace\PWM_from_ex\Libraries\XMCLib\inc\xmc4_scu.h **** void XMC_SCU_SetBootMode(const XMC_SCU_BOOTMODE_t mode);
 977:D:\Naukowe\BLDC_workspace\PWM_from_ex\Libraries\XMCLib\inc\xmc4_scu.h **** 
 978:D:\Naukowe\BLDC_workspace\PWM_from_ex\Libraries\XMCLib\inc\xmc4_scu.h **** /**
 979:D:\Naukowe\BLDC_workspace\PWM_from_ex\Libraries\XMCLib\inc\xmc4_scu.h ****  *
 980:D:\Naukowe\BLDC_workspace\PWM_from_ex\Libraries\XMCLib\inc\xmc4_scu.h ****  * @param index  The SCU general purpose register to be read.\n
 981:D:\Naukowe\BLDC_workspace\PWM_from_ex\Libraries\XMCLib\inc\xmc4_scu.h ****  *        \b Range: 0 and 1 corresponding to GPR0 and GPR1.
 982:D:\Naukowe\BLDC_workspace\PWM_from_ex\Libraries\XMCLib\inc\xmc4_scu.h ****  *
 983:D:\Naukowe\BLDC_workspace\PWM_from_ex\Libraries\XMCLib\inc\xmc4_scu.h ****  * @return uint32_t  Data read from the selected general purpose register.
 984:D:\Naukowe\BLDC_workspace\PWM_from_ex\Libraries\XMCLib\inc\xmc4_scu.h ****  *
 985:D:\Naukowe\BLDC_workspace\PWM_from_ex\Libraries\XMCLib\inc\xmc4_scu.h ****  * \par<b>Description</b><br>
 986:D:\Naukowe\BLDC_workspace\PWM_from_ex\Libraries\XMCLib\inc\xmc4_scu.h ****  * Provides stored data from general purpose SCU register.\n\n
 987:D:\Naukowe\BLDC_workspace\PWM_from_ex\Libraries\XMCLib\inc\xmc4_scu.h ****  * SCU consists of 2 general purpose registers. These registers can be used for storing
 988:D:\Naukowe\BLDC_workspace\PWM_from_ex\Libraries\XMCLib\inc\xmc4_scu.h ****  * data. The API reads from either GPR0 or GPR1 based on the \a index value.
 989:D:\Naukowe\BLDC_workspace\PWM_from_ex\Libraries\XMCLib\inc\xmc4_scu.h ****  * \par<b>Related APIs:</b><BR>
 990:D:\Naukowe\BLDC_workspace\PWM_from_ex\Libraries\XMCLib\inc\xmc4_scu.h ****  * XMC_SCU_WriteGPR()\n\n\n
 991:D:\Naukowe\BLDC_workspace\PWM_from_ex\Libraries\XMCLib\inc\xmc4_scu.h ****  */
 992:D:\Naukowe\BLDC_workspace\PWM_from_ex\Libraries\XMCLib\inc\xmc4_scu.h **** uint32_t XMC_SCU_ReadGPR(const uint32_t index);
 993:D:\Naukowe\BLDC_workspace\PWM_from_ex\Libraries\XMCLib\inc\xmc4_scu.h ****  
 994:D:\Naukowe\BLDC_workspace\PWM_from_ex\Libraries\XMCLib\inc\xmc4_scu.h **** /**
 995:D:\Naukowe\BLDC_workspace\PWM_from_ex\Libraries\XMCLib\inc\xmc4_scu.h ****  *
 996:D:\Naukowe\BLDC_workspace\PWM_from_ex\Libraries\XMCLib\inc\xmc4_scu.h ****  * @param index  The SCU general purpose register to be written.\n
 997:D:\Naukowe\BLDC_workspace\PWM_from_ex\Libraries\XMCLib\inc\xmc4_scu.h ****  *        \b Range: 0 and 1 corresponding to GPR0 and GPR1.
 998:D:\Naukowe\BLDC_workspace\PWM_from_ex\Libraries\XMCLib\inc\xmc4_scu.h ****  * @param data  Data to be written to the selected general purpose register.
 999:D:\Naukowe\BLDC_workspace\PWM_from_ex\Libraries\XMCLib\inc\xmc4_scu.h ****  *
1000:D:\Naukowe\BLDC_workspace\PWM_from_ex\Libraries\XMCLib\inc\xmc4_scu.h ****  * @return None
1001:D:\Naukowe\BLDC_workspace\PWM_from_ex\Libraries\XMCLib\inc\xmc4_scu.h ****  *
1002:D:\Naukowe\BLDC_workspace\PWM_from_ex\Libraries\XMCLib\inc\xmc4_scu.h ****  * \par<b>Description</b><br>
1003:D:\Naukowe\BLDC_workspace\PWM_from_ex\Libraries\XMCLib\inc\xmc4_scu.h ****  * Stores data in the selected general purpose SCU register.\n\n
1004:D:\Naukowe\BLDC_workspace\PWM_from_ex\Libraries\XMCLib\inc\xmc4_scu.h ****  * SCU consists of 2 general purpose registers. These registers can be used for storing
1005:D:\Naukowe\BLDC_workspace\PWM_from_ex\Libraries\XMCLib\inc\xmc4_scu.h ****  * data. The API writes data to either GPR0 or GPR1 based on the \a index value.
1006:D:\Naukowe\BLDC_workspace\PWM_from_ex\Libraries\XMCLib\inc\xmc4_scu.h ****  * \par<b>Related APIs:</b><BR>
1007:D:\Naukowe\BLDC_workspace\PWM_from_ex\Libraries\XMCLib\inc\xmc4_scu.h ****  * XMC_SCU_ReadGPR()\n\n\n
1008:D:\Naukowe\BLDC_workspace\PWM_from_ex\Libraries\XMCLib\inc\xmc4_scu.h ****  */
1009:D:\Naukowe\BLDC_workspace\PWM_from_ex\Libraries\XMCLib\inc\xmc4_scu.h **** void XMC_SCU_WriteGPR(const uint32_t index, const uint32_t data);
1010:D:\Naukowe\BLDC_workspace\PWM_from_ex\Libraries\XMCLib\inc\xmc4_scu.h **** 
1011:D:\Naukowe\BLDC_workspace\PWM_from_ex\Libraries\XMCLib\inc\xmc4_scu.h **** /**
1012:D:\Naukowe\BLDC_workspace\PWM_from_ex\Libraries\XMCLib\inc\xmc4_scu.h ****  *
1013:D:\Naukowe\BLDC_workspace\PWM_from_ex\Libraries\XMCLib\inc\xmc4_scu.h ****  * @param address  Location in the retention memory to be written.\n
1014:D:\Naukowe\BLDC_workspace\PWM_from_ex\Libraries\XMCLib\inc\xmc4_scu.h ****  *        \b Range: 4 bit address space is provided for selecting 16 words of 32 bits.
1015:D:\Naukowe\BLDC_workspace\PWM_from_ex\Libraries\XMCLib\inc\xmc4_scu.h ****  *                  equivalent to 64 bytes of data. \a address value should be from
1016:D:\Naukowe\BLDC_workspace\PWM_from_ex\Libraries\XMCLib\inc\xmc4_scu.h ****  *                  0 to 15.
1017:D:\Naukowe\BLDC_workspace\PWM_from_ex\Libraries\XMCLib\inc\xmc4_scu.h ****  * @param data    32 bit data to be written into retention memory. The API writes
1018:D:\Naukowe\BLDC_workspace\PWM_from_ex\Libraries\XMCLib\inc\xmc4_scu.h ****  *                one word(4 bytes) of data to the address specified.\n
1019:D:\Naukowe\BLDC_workspace\PWM_from_ex\Libraries\XMCLib\inc\xmc4_scu.h ****  *                \b Range: 32 bit data.
1020:D:\Naukowe\BLDC_workspace\PWM_from_ex\Libraries\XMCLib\inc\xmc4_scu.h ****  *
1021:D:\Naukowe\BLDC_workspace\PWM_from_ex\Libraries\XMCLib\inc\xmc4_scu.h ****  * @return None
1022:D:\Naukowe\BLDC_workspace\PWM_from_ex\Libraries\XMCLib\inc\xmc4_scu.h ****  *
1023:D:\Naukowe\BLDC_workspace\PWM_from_ex\Libraries\XMCLib\inc\xmc4_scu.h ****  * \par<b>Description</b><br>
1024:D:\Naukowe\BLDC_workspace\PWM_from_ex\Libraries\XMCLib\inc\xmc4_scu.h ****  * Writes input data to the selected address of Retention memory in hibernate domain.\n\n
1025:D:\Naukowe\BLDC_workspace\PWM_from_ex\Libraries\XMCLib\inc\xmc4_scu.h ****  * The retention memory is located in hibernate domain. 
1026:D:\Naukowe\BLDC_workspace\PWM_from_ex\Libraries\XMCLib\inc\xmc4_scu.h ****  * It is used for the purpose of store/restore of context information.
1027:D:\Naukowe\BLDC_workspace\PWM_from_ex\Libraries\XMCLib\inc\xmc4_scu.h ****  * Access to the retention memory space is served over shared serial interface. 
1028:D:\Naukowe\BLDC_workspace\PWM_from_ex\Libraries\XMCLib\inc\xmc4_scu.h ****  * Retention memory content is retained even in hibernate mode.
1029:D:\Naukowe\BLDC_workspace\PWM_from_ex\Libraries\XMCLib\inc\xmc4_scu.h ****  * \par<b>Related APIs:</b><BR>
1030:D:\Naukowe\BLDC_workspace\PWM_from_ex\Libraries\XMCLib\inc\xmc4_scu.h ****  * XMC_SCU_ReadFromRetentionMemory() \n\n\n
1031:D:\Naukowe\BLDC_workspace\PWM_from_ex\Libraries\XMCLib\inc\xmc4_scu.h ****  */
1032:D:\Naukowe\BLDC_workspace\PWM_from_ex\Libraries\XMCLib\inc\xmc4_scu.h **** void XMC_SCU_WriteToRetentionMemory(uint32_t address, uint32_t data);
1033:D:\Naukowe\BLDC_workspace\PWM_from_ex\Libraries\XMCLib\inc\xmc4_scu.h **** 
1034:D:\Naukowe\BLDC_workspace\PWM_from_ex\Libraries\XMCLib\inc\xmc4_scu.h **** /**
1035:D:\Naukowe\BLDC_workspace\PWM_from_ex\Libraries\XMCLib\inc\xmc4_scu.h ****  *
1036:D:\Naukowe\BLDC_workspace\PWM_from_ex\Libraries\XMCLib\inc\xmc4_scu.h ****  * @param address  Location in the retention memory to be read.\n
1037:D:\Naukowe\BLDC_workspace\PWM_from_ex\Libraries\XMCLib\inc\xmc4_scu.h ****  *        \b Range: 4 bit address space is provided for selecting 16 words of 32 bits.
1038:D:\Naukowe\BLDC_workspace\PWM_from_ex\Libraries\XMCLib\inc\xmc4_scu.h ****  *                  equivalent to 64 bytes of data. \a address value should be from
1039:D:\Naukowe\BLDC_workspace\PWM_from_ex\Libraries\XMCLib\inc\xmc4_scu.h ****  *                  0 to 15.
1040:D:\Naukowe\BLDC_workspace\PWM_from_ex\Libraries\XMCLib\inc\xmc4_scu.h ****  *
1041:D:\Naukowe\BLDC_workspace\PWM_from_ex\Libraries\XMCLib\inc\xmc4_scu.h ****  * @return uint32_t  32 bit data read from retention memory. The API reads
1042:D:\Naukowe\BLDC_workspace\PWM_from_ex\Libraries\XMCLib\inc\xmc4_scu.h ****  *                one word(4 bytes) of data from the address specified.\n
1043:D:\Naukowe\BLDC_workspace\PWM_from_ex\Libraries\XMCLib\inc\xmc4_scu.h ****  *                \b Range: 32 bit data.
1044:D:\Naukowe\BLDC_workspace\PWM_from_ex\Libraries\XMCLib\inc\xmc4_scu.h ****  *
1045:D:\Naukowe\BLDC_workspace\PWM_from_ex\Libraries\XMCLib\inc\xmc4_scu.h ****  * \par<b>Description</b><br>
1046:D:\Naukowe\BLDC_workspace\PWM_from_ex\Libraries\XMCLib\inc\xmc4_scu.h ****  * Reads data from selected address of retention memory in hibernate domain.\n\n
1047:D:\Naukowe\BLDC_workspace\PWM_from_ex\Libraries\XMCLib\inc\xmc4_scu.h ****  * The retention memory is located in hibernate domain. 
1048:D:\Naukowe\BLDC_workspace\PWM_from_ex\Libraries\XMCLib\inc\xmc4_scu.h ****  * It is used for the purpose of store/restore of context information.
1049:D:\Naukowe\BLDC_workspace\PWM_from_ex\Libraries\XMCLib\inc\xmc4_scu.h ****  * Access to the retention memory space is served over shared serial interface. 
1050:D:\Naukowe\BLDC_workspace\PWM_from_ex\Libraries\XMCLib\inc\xmc4_scu.h ****  * Retention memory content is retained even in hibernate mode.
1051:D:\Naukowe\BLDC_workspace\PWM_from_ex\Libraries\XMCLib\inc\xmc4_scu.h ****  * \par<b>Related APIs:</b><BR>
1052:D:\Naukowe\BLDC_workspace\PWM_from_ex\Libraries\XMCLib\inc\xmc4_scu.h ****  * XMC_SCU_WriteToRetentionMemory() \n\n\n
1053:D:\Naukowe\BLDC_workspace\PWM_from_ex\Libraries\XMCLib\inc\xmc4_scu.h ****  */
1054:D:\Naukowe\BLDC_workspace\PWM_from_ex\Libraries\XMCLib\inc\xmc4_scu.h **** uint32_t XMC_SCU_ReadFromRetentionMemory(uint32_t address);
1055:D:\Naukowe\BLDC_workspace\PWM_from_ex\Libraries\XMCLib\inc\xmc4_scu.h **** 
1056:D:\Naukowe\BLDC_workspace\PWM_from_ex\Libraries\XMCLib\inc\xmc4_scu.h **** /**
1057:D:\Naukowe\BLDC_workspace\PWM_from_ex\Libraries\XMCLib\inc\xmc4_scu.h ****  *
1058:D:\Naukowe\BLDC_workspace\PWM_from_ex\Libraries\XMCLib\inc\xmc4_scu.h ****  * @param request  Non-maskable interrupt (NMI) request source to be enabled.\n
1059:D:\Naukowe\BLDC_workspace\PWM_from_ex\Libraries\XMCLib\inc\xmc4_scu.h ****  *              \b Range: Use type @ref XMC_SCU_NMIREQ_t for selecting the source of NMI. Multiple 
1060:D:\Naukowe\BLDC_workspace\PWM_from_ex\Libraries\XMCLib\inc\xmc4_scu.h ****  *              sources can be combined using \a OR operation.
1061:D:\Naukowe\BLDC_workspace\PWM_from_ex\Libraries\XMCLib\inc\xmc4_scu.h ****  *
1062:D:\Naukowe\BLDC_workspace\PWM_from_ex\Libraries\XMCLib\inc\xmc4_scu.h ****  * @return None  
1063:D:\Naukowe\BLDC_workspace\PWM_from_ex\Libraries\XMCLib\inc\xmc4_scu.h ****  *
1064:D:\Naukowe\BLDC_workspace\PWM_from_ex\Libraries\XMCLib\inc\xmc4_scu.h ****  * \par<b>Description</b><br>
1065:D:\Naukowe\BLDC_workspace\PWM_from_ex\Libraries\XMCLib\inc\xmc4_scu.h ****  * Selectively enables interrupt sources to generate non maskable interrupt(NMI).\n\n
1066:D:\Naukowe\BLDC_workspace\PWM_from_ex\Libraries\XMCLib\inc\xmc4_scu.h ****  * NMI assertion can be individually enabled by setting corresponding bit of an interrupt in the 
1067:D:\Naukowe\BLDC_workspace\PWM_from_ex\Libraries\XMCLib\inc\xmc4_scu.h ****  * \a NMIREQEN register.
1068:D:\Naukowe\BLDC_workspace\PWM_from_ex\Libraries\XMCLib\inc\xmc4_scu.h ****  * \par<b>Related APIs:</b><BR>
1069:D:\Naukowe\BLDC_workspace\PWM_from_ex\Libraries\XMCLib\inc\xmc4_scu.h ****  * XMC_SCU_INTERRUPT_DisableNmiRequest() \n\n\n
1070:D:\Naukowe\BLDC_workspace\PWM_from_ex\Libraries\XMCLib\inc\xmc4_scu.h ****  */
1071:D:\Naukowe\BLDC_workspace\PWM_from_ex\Libraries\XMCLib\inc\xmc4_scu.h **** void XMC_SCU_INTERRUPT_EnableNmiRequest(const uint32_t request);
1072:D:\Naukowe\BLDC_workspace\PWM_from_ex\Libraries\XMCLib\inc\xmc4_scu.h **** 
1073:D:\Naukowe\BLDC_workspace\PWM_from_ex\Libraries\XMCLib\inc\xmc4_scu.h **** /**
1074:D:\Naukowe\BLDC_workspace\PWM_from_ex\Libraries\XMCLib\inc\xmc4_scu.h ****  *
1075:D:\Naukowe\BLDC_workspace\PWM_from_ex\Libraries\XMCLib\inc\xmc4_scu.h ****  * @param request  Non-maskable interrupt (NMI) request source to be disabled.\n
1076:D:\Naukowe\BLDC_workspace\PWM_from_ex\Libraries\XMCLib\inc\xmc4_scu.h ****  *              \b Range: Use type @ref XMC_SCU_NMIREQ_t for selecting the source of NMI. Multiple 
1077:D:\Naukowe\BLDC_workspace\PWM_from_ex\Libraries\XMCLib\inc\xmc4_scu.h ****  *              sources can be combined using \a OR operation.
1078:D:\Naukowe\BLDC_workspace\PWM_from_ex\Libraries\XMCLib\inc\xmc4_scu.h ****  *
1079:D:\Naukowe\BLDC_workspace\PWM_from_ex\Libraries\XMCLib\inc\xmc4_scu.h ****  * @return None  
1080:D:\Naukowe\BLDC_workspace\PWM_from_ex\Libraries\XMCLib\inc\xmc4_scu.h ****  *
1081:D:\Naukowe\BLDC_workspace\PWM_from_ex\Libraries\XMCLib\inc\xmc4_scu.h ****  * \par<b>Description</b><br>
1082:D:\Naukowe\BLDC_workspace\PWM_from_ex\Libraries\XMCLib\inc\xmc4_scu.h ****  * Selectively disables interrupt sources from generating non maskable interrupt(NMI).\n\n
1083:D:\Naukowe\BLDC_workspace\PWM_from_ex\Libraries\XMCLib\inc\xmc4_scu.h ****  * NMI assertion can be individually disabled by clearing corresponding bits in the \a NMIREQEN reg
1084:D:\Naukowe\BLDC_workspace\PWM_from_ex\Libraries\XMCLib\inc\xmc4_scu.h ****  * \par<b>Related APIs:</b><BR>
1085:D:\Naukowe\BLDC_workspace\PWM_from_ex\Libraries\XMCLib\inc\xmc4_scu.h ****  * XMC_SCU_INTERRUPT_EnableNmiRequest() \n\n\n
1086:D:\Naukowe\BLDC_workspace\PWM_from_ex\Libraries\XMCLib\inc\xmc4_scu.h ****  */
1087:D:\Naukowe\BLDC_workspace\PWM_from_ex\Libraries\XMCLib\inc\xmc4_scu.h **** void XMC_SCU_INTERRUPT_DisableNmiRequest(const uint32_t request);
1088:D:\Naukowe\BLDC_workspace\PWM_from_ex\Libraries\XMCLib\inc\xmc4_scu.h **** 
1089:D:\Naukowe\BLDC_workspace\PWM_from_ex\Libraries\XMCLib\inc\xmc4_scu.h **** /**
1090:D:\Naukowe\BLDC_workspace\PWM_from_ex\Libraries\XMCLib\inc\xmc4_scu.h ****  *
1091:D:\Naukowe\BLDC_workspace\PWM_from_ex\Libraries\XMCLib\inc\xmc4_scu.h ****  * @param trap  The event for which, trap generation has to be enabled.\n
1092:D:\Naukowe\BLDC_workspace\PWM_from_ex\Libraries\XMCLib\inc\xmc4_scu.h ****  *        \b Range: Use type @ref XMC_SCU_TRAP_t to identify the event.
1093:D:\Naukowe\BLDC_workspace\PWM_from_ex\Libraries\XMCLib\inc\xmc4_scu.h ****  *
1094:D:\Naukowe\BLDC_workspace\PWM_from_ex\Libraries\XMCLib\inc\xmc4_scu.h ****  * @return None  
1095:D:\Naukowe\BLDC_workspace\PWM_from_ex\Libraries\XMCLib\inc\xmc4_scu.h ****  *
1096:D:\Naukowe\BLDC_workspace\PWM_from_ex\Libraries\XMCLib\inc\xmc4_scu.h ****  * \par<b>Description</b><br>
1097:D:\Naukowe\BLDC_workspace\PWM_from_ex\Libraries\XMCLib\inc\xmc4_scu.h ****  * Enables assertion of trap for the selected trap event.\n\n
1098:D:\Naukowe\BLDC_workspace\PWM_from_ex\Libraries\XMCLib\inc\xmc4_scu.h ****  * Trap assertion can be individually enabled by clearing respective bit of the 
1099:D:\Naukowe\BLDC_workspace\PWM_from_ex\Libraries\XMCLib\inc\xmc4_scu.h ****  * event in \a TRAPDIS register in order to get an exception.
1100:D:\Naukowe\BLDC_workspace\PWM_from_ex\Libraries\XMCLib\inc\xmc4_scu.h ****  * \par<b>Related APIs:</b><BR>
1101:D:\Naukowe\BLDC_workspace\PWM_from_ex\Libraries\XMCLib\inc\xmc4_scu.h ****  * XMC_SCU_TRAP_Disable(), XMC_SCU_TRAP_ClearStatus(), XMC_SCU_TRAP_GetStatus() \n\n\n
1102:D:\Naukowe\BLDC_workspace\PWM_from_ex\Libraries\XMCLib\inc\xmc4_scu.h ****  */
1103:D:\Naukowe\BLDC_workspace\PWM_from_ex\Libraries\XMCLib\inc\xmc4_scu.h **** void XMC_SCU_TRAP_Enable(const uint32_t trap);
1104:D:\Naukowe\BLDC_workspace\PWM_from_ex\Libraries\XMCLib\inc\xmc4_scu.h **** 
1105:D:\Naukowe\BLDC_workspace\PWM_from_ex\Libraries\XMCLib\inc\xmc4_scu.h **** /**
1106:D:\Naukowe\BLDC_workspace\PWM_from_ex\Libraries\XMCLib\inc\xmc4_scu.h ****  *
1107:D:\Naukowe\BLDC_workspace\PWM_from_ex\Libraries\XMCLib\inc\xmc4_scu.h ****  * @param trap  The event for which, trap generation has to be disabled.\n
1108:D:\Naukowe\BLDC_workspace\PWM_from_ex\Libraries\XMCLib\inc\xmc4_scu.h ****  *        \b Range: Use type @ref XMC_SCU_TRAP_t to identify the event.
1109:D:\Naukowe\BLDC_workspace\PWM_from_ex\Libraries\XMCLib\inc\xmc4_scu.h ****  *
1110:D:\Naukowe\BLDC_workspace\PWM_from_ex\Libraries\XMCLib\inc\xmc4_scu.h ****  * @return None  
1111:D:\Naukowe\BLDC_workspace\PWM_from_ex\Libraries\XMCLib\inc\xmc4_scu.h ****  *
1112:D:\Naukowe\BLDC_workspace\PWM_from_ex\Libraries\XMCLib\inc\xmc4_scu.h ****  * \par<b>Description</b><br>
1113:D:\Naukowe\BLDC_workspace\PWM_from_ex\Libraries\XMCLib\inc\xmc4_scu.h ****  * Disables assertion of trap for the selected trap event.\n\n
1114:D:\Naukowe\BLDC_workspace\PWM_from_ex\Libraries\XMCLib\inc\xmc4_scu.h ****  * Trap assertion can be individually disabled by setting the respective event bit 
1115:D:\Naukowe\BLDC_workspace\PWM_from_ex\Libraries\XMCLib\inc\xmc4_scu.h ****  * in the \a TRAPDIS register in order to suppress trap generation.
1116:D:\Naukowe\BLDC_workspace\PWM_from_ex\Libraries\XMCLib\inc\xmc4_scu.h ****  * \par<b>Related APIs:</b><BR>
1117:D:\Naukowe\BLDC_workspace\PWM_from_ex\Libraries\XMCLib\inc\xmc4_scu.h ****  * XMC_SCU_TRAP_Enable(), XMC_SCU_TRAP_ClearStatus(), XMC_SCU_TRAP_GetStatus() \n\n\n
1118:D:\Naukowe\BLDC_workspace\PWM_from_ex\Libraries\XMCLib\inc\xmc4_scu.h ****  */
1119:D:\Naukowe\BLDC_workspace\PWM_from_ex\Libraries\XMCLib\inc\xmc4_scu.h **** void XMC_SCU_TRAP_Disable(const uint32_t trap);
1120:D:\Naukowe\BLDC_workspace\PWM_from_ex\Libraries\XMCLib\inc\xmc4_scu.h **** 
1121:D:\Naukowe\BLDC_workspace\PWM_from_ex\Libraries\XMCLib\inc\xmc4_scu.h **** /**
1122:D:\Naukowe\BLDC_workspace\PWM_from_ex\Libraries\XMCLib\inc\xmc4_scu.h ****  *
1123:D:\Naukowe\BLDC_workspace\PWM_from_ex\Libraries\XMCLib\inc\xmc4_scu.h ****  * @param trap  The event for which, trap status bit has to be cleared.\n
1124:D:\Naukowe\BLDC_workspace\PWM_from_ex\Libraries\XMCLib\inc\xmc4_scu.h ****  *        \b Range: Use type @ref XMC_SCU_TRAP_t to identify the event.
1125:D:\Naukowe\BLDC_workspace\PWM_from_ex\Libraries\XMCLib\inc\xmc4_scu.h ****  *
1126:D:\Naukowe\BLDC_workspace\PWM_from_ex\Libraries\XMCLib\inc\xmc4_scu.h ****  * @return None  
1127:D:\Naukowe\BLDC_workspace\PWM_from_ex\Libraries\XMCLib\inc\xmc4_scu.h ****  *
1128:D:\Naukowe\BLDC_workspace\PWM_from_ex\Libraries\XMCLib\inc\xmc4_scu.h ****  * \par<b>Description</b><br>
1129:D:\Naukowe\BLDC_workspace\PWM_from_ex\Libraries\XMCLib\inc\xmc4_scu.h ****  * Clears the trap status of input event.\n\n
1130:D:\Naukowe\BLDC_workspace\PWM_from_ex\Libraries\XMCLib\inc\xmc4_scu.h ****  * Once a trap event is detected, it will have to be acknowledged and later serviced. 
1131:D:\Naukowe\BLDC_workspace\PWM_from_ex\Libraries\XMCLib\inc\xmc4_scu.h ****  * The trap status bit should be cleared to detect the occurence of trap next time. 
1132:D:\Naukowe\BLDC_workspace\PWM_from_ex\Libraries\XMCLib\inc\xmc4_scu.h ****  * This is useful while polling for TRAPSTAT without enabling the NMI for trap.
1133:D:\Naukowe\BLDC_workspace\PWM_from_ex\Libraries\XMCLib\inc\xmc4_scu.h ****  * Trap status can be cleared by setting the event bit in the \a TRAPCLR register.
1134:D:\Naukowe\BLDC_workspace\PWM_from_ex\Libraries\XMCLib\inc\xmc4_scu.h ****  * \par<b>Related APIs:</b><BR>
1135:D:\Naukowe\BLDC_workspace\PWM_from_ex\Libraries\XMCLib\inc\xmc4_scu.h ****  * XMC_SCU_INTERRUPT_EnableNmiRequest(), XMC_SCU_TRAP_GetStatus() \n\n\n
1136:D:\Naukowe\BLDC_workspace\PWM_from_ex\Libraries\XMCLib\inc\xmc4_scu.h ****  */
1137:D:\Naukowe\BLDC_workspace\PWM_from_ex\Libraries\XMCLib\inc\xmc4_scu.h **** void XMC_SCU_TRAP_ClearStatus(const uint32_t trap);
1138:D:\Naukowe\BLDC_workspace\PWM_from_ex\Libraries\XMCLib\inc\xmc4_scu.h **** 
1139:D:\Naukowe\BLDC_workspace\PWM_from_ex\Libraries\XMCLib\inc\xmc4_scu.h **** /**
1140:D:\Naukowe\BLDC_workspace\PWM_from_ex\Libraries\XMCLib\inc\xmc4_scu.h ****  * @return uint32_t  Status of trap generating events.\n
1141:D:\Naukowe\BLDC_workspace\PWM_from_ex\Libraries\XMCLib\inc\xmc4_scu.h ****  *        \b Range: Use type @ref XMC_SCU_TRAP_t to identify the event. The returned
1142:D:\Naukowe\BLDC_workspace\PWM_from_ex\Libraries\XMCLib\inc\xmc4_scu.h ****  * value indicates the status of multiple events at their respective bit positions.
1143:D:\Naukowe\BLDC_workspace\PWM_from_ex\Libraries\XMCLib\inc\xmc4_scu.h ****  * User should mask the bits of the events of interest using the type specified.
1144:D:\Naukowe\BLDC_workspace\PWM_from_ex\Libraries\XMCLib\inc\xmc4_scu.h ****  *
1145:D:\Naukowe\BLDC_workspace\PWM_from_ex\Libraries\XMCLib\inc\xmc4_scu.h ****  * \par<b>Description</b><br>
1146:D:\Naukowe\BLDC_workspace\PWM_from_ex\Libraries\XMCLib\inc\xmc4_scu.h ****  * Provides the status of trap generating events. \n\n
1147:D:\Naukowe\BLDC_workspace\PWM_from_ex\Libraries\XMCLib\inc\xmc4_scu.h ****  * The status is read from \a TRAPRAW register. Status of the specific events can be checked
1148:D:\Naukowe\BLDC_workspace\PWM_from_ex\Libraries\XMCLib\inc\xmc4_scu.h ****  * using their respective bits in the \a TRAPRAW register. The bit masks can be obtained from
1149:D:\Naukowe\BLDC_workspace\PWM_from_ex\Libraries\XMCLib\inc\xmc4_scu.h ****  * the enumeration type @ref XMC_SCU_TRAP_t. Multiple events can be combined using \a OR operation.
1150:D:\Naukowe\BLDC_workspace\PWM_from_ex\Libraries\XMCLib\inc\xmc4_scu.h ****  * A trap event is considered to be asserted if the respective bit of the event is set to 1.
1151:D:\Naukowe\BLDC_workspace\PWM_from_ex\Libraries\XMCLib\inc\xmc4_scu.h ****  * \par<b>Related APIs:</b><BR>
1152:D:\Naukowe\BLDC_workspace\PWM_from_ex\Libraries\XMCLib\inc\xmc4_scu.h ****  * XMC_SCU_INTERRUPT_EnableNmiRequest(), XMC_SCU_TRAP_ClearStatus() \n\n\n
1153:D:\Naukowe\BLDC_workspace\PWM_from_ex\Libraries\XMCLib\inc\xmc4_scu.h ****  */
1154:D:\Naukowe\BLDC_workspace\PWM_from_ex\Libraries\XMCLib\inc\xmc4_scu.h **** uint32_t XMC_SCU_TRAP_GetStatus(void);  
1155:D:\Naukowe\BLDC_workspace\PWM_from_ex\Libraries\XMCLib\inc\xmc4_scu.h **** 
1156:D:\Naukowe\BLDC_workspace\PWM_from_ex\Libraries\XMCLib\inc\xmc4_scu.h **** /**
1157:D:\Naukowe\BLDC_workspace\PWM_from_ex\Libraries\XMCLib\inc\xmc4_scu.h ****  *
1158:D:\Naukowe\BLDC_workspace\PWM_from_ex\Libraries\XMCLib\inc\xmc4_scu.h ****  * @param trap  The event for which, trap has to be triggered.\n
1159:D:\Naukowe\BLDC_workspace\PWM_from_ex\Libraries\XMCLib\inc\xmc4_scu.h ****  *        \b Range: Use type @ref XMC_SCU_TRAP_t to identify the event.
1160:D:\Naukowe\BLDC_workspace\PWM_from_ex\Libraries\XMCLib\inc\xmc4_scu.h ****  *
1161:D:\Naukowe\BLDC_workspace\PWM_from_ex\Libraries\XMCLib\inc\xmc4_scu.h ****  * @return None
1162:D:\Naukowe\BLDC_workspace\PWM_from_ex\Libraries\XMCLib\inc\xmc4_scu.h ****  *
1163:D:\Naukowe\BLDC_workspace\PWM_from_ex\Libraries\XMCLib\inc\xmc4_scu.h ****  * \par<b>Description</b><br>
1164:D:\Naukowe\BLDC_workspace\PWM_from_ex\Libraries\XMCLib\inc\xmc4_scu.h ****  * Triggers trap generation for the event specified. \n\n
1165:D:\Naukowe\BLDC_workspace\PWM_from_ex\Libraries\XMCLib\inc\xmc4_scu.h ****  * The trap source has to be enabled before invocation of this API. 
1166:D:\Naukowe\BLDC_workspace\PWM_from_ex\Libraries\XMCLib\inc\xmc4_scu.h ****  * Trap event can be triggered by setting its respective bit in the \a TRAPSET register.
1167:D:\Naukowe\BLDC_workspace\PWM_from_ex\Libraries\XMCLib\inc\xmc4_scu.h ****  * Trap event can be configured to generate a non maskable interrupt by using the API XMC_SCU_INTER
1168:D:\Naukowe\BLDC_workspace\PWM_from_ex\Libraries\XMCLib\inc\xmc4_scu.h ****  * It is recommended to use following steps to manually assert a trap event:\n
1169:D:\Naukowe\BLDC_workspace\PWM_from_ex\Libraries\XMCLib\inc\xmc4_scu.h ****  * - Call \a XMC_SCU_TRAP_EnableEvent with desired trap request source ID.\n
1170:D:\Naukowe\BLDC_workspace\PWM_from_ex\Libraries\XMCLib\inc\xmc4_scu.h ****  * - Call \a XMC_SCU_TRAP_SetEvent with same trap request source ID to manually assert a trap event
1171:D:\Naukowe\BLDC_workspace\PWM_from_ex\Libraries\XMCLib\inc\xmc4_scu.h ****  * \par<b>Related APIs:</b><BR>
1172:D:\Naukowe\BLDC_workspace\PWM_from_ex\Libraries\XMCLib\inc\xmc4_scu.h ****  * XMC_SCU_INTERRUPT_EnableNmiRequest(), XMC_SCU_TRAP_GetStatus() \n\n\n
1173:D:\Naukowe\BLDC_workspace\PWM_from_ex\Libraries\XMCLib\inc\xmc4_scu.h ****  */
1174:D:\Naukowe\BLDC_workspace\PWM_from_ex\Libraries\XMCLib\inc\xmc4_scu.h **** void XMC_SCU_TRAP_Trigger(const uint32_t trap);
1175:D:\Naukowe\BLDC_workspace\PWM_from_ex\Libraries\XMCLib\inc\xmc4_scu.h **** 
1176:D:\Naukowe\BLDC_workspace\PWM_from_ex\Libraries\XMCLib\inc\xmc4_scu.h **** /**
1177:D:\Naukowe\BLDC_workspace\PWM_from_ex\Libraries\XMCLib\inc\xmc4_scu.h ****  *
1178:D:\Naukowe\BLDC_workspace\PWM_from_ex\Libraries\XMCLib\inc\xmc4_scu.h ****  * @param peripheral  The peripheral to be reset.\n
1179:D:\Naukowe\BLDC_workspace\PWM_from_ex\Libraries\XMCLib\inc\xmc4_scu.h ****  *        \b Range: Type @ref XMC_SCU_PERIPHERAL_RESET_t enumerates all the peripherals that can be
1180:D:\Naukowe\BLDC_workspace\PWM_from_ex\Libraries\XMCLib\inc\xmc4_scu.h ****  *
1181:D:\Naukowe\BLDC_workspace\PWM_from_ex\Libraries\XMCLib\inc\xmc4_scu.h ****  * @return None
1182:D:\Naukowe\BLDC_workspace\PWM_from_ex\Libraries\XMCLib\inc\xmc4_scu.h ****  *
1183:D:\Naukowe\BLDC_workspace\PWM_from_ex\Libraries\XMCLib\inc\xmc4_scu.h ****  * \par<b>Description</b><br>
1184:D:\Naukowe\BLDC_workspace\PWM_from_ex\Libraries\XMCLib\inc\xmc4_scu.h ****  * Puts the specified peripheral in to reset state. \n\n
1185:D:\Naukowe\BLDC_workspace\PWM_from_ex\Libraries\XMCLib\inc\xmc4_scu.h ****  * The API achieves reset of peripherals by setting the respective bit in the \a PRSET0,  \a PRSET1
1186:D:\Naukowe\BLDC_workspace\PWM_from_ex\Libraries\XMCLib\inc\xmc4_scu.h ****  * register. Status of reset assertion automatically stored in the \a PRSTATn register and can be c
1187:D:\Naukowe\BLDC_workspace\PWM_from_ex\Libraries\XMCLib\inc\xmc4_scu.h ****  * user software to determine the state of the system and for debug purpose.\n
1188:D:\Naukowe\BLDC_workspace\PWM_from_ex\Libraries\XMCLib\inc\xmc4_scu.h ****  * It is recommended to use following steps to assert a peripheral reset:\n
1189:D:\Naukowe\BLDC_workspace\PWM_from_ex\Libraries\XMCLib\inc\xmc4_scu.h ****  * - Call \a XMC_SCU_RESET_AssertPeripheralReset() with desired peripheral identifier.\n
1190:D:\Naukowe\BLDC_workspace\PWM_from_ex\Libraries\XMCLib\inc\xmc4_scu.h ****  * - Call \a XMC_SCU_RESET_IsPeripheralResetAsserted with same peripheral identifier to verify whet
1191:D:\Naukowe\BLDC_workspace\PWM_from_ex\Libraries\XMCLib\inc\xmc4_scu.h ****  * is in reset state.\n
1192:D:\Naukowe\BLDC_workspace\PWM_from_ex\Libraries\XMCLib\inc\xmc4_scu.h ****  * \par<b>Related APIs:</b><BR>
1193:D:\Naukowe\BLDC_workspace\PWM_from_ex\Libraries\XMCLib\inc\xmc4_scu.h ****  * XMC_SCU_RESET_IsPeripheralResetAsserted() \n\n\n
1194:D:\Naukowe\BLDC_workspace\PWM_from_ex\Libraries\XMCLib\inc\xmc4_scu.h ****  */
1195:D:\Naukowe\BLDC_workspace\PWM_from_ex\Libraries\XMCLib\inc\xmc4_scu.h **** void XMC_SCU_RESET_AssertPeripheralReset(const XMC_SCU_PERIPHERAL_RESET_t peripheral);
1196:D:\Naukowe\BLDC_workspace\PWM_from_ex\Libraries\XMCLib\inc\xmc4_scu.h **** 
1197:D:\Naukowe\BLDC_workspace\PWM_from_ex\Libraries\XMCLib\inc\xmc4_scu.h **** /**
1198:D:\Naukowe\BLDC_workspace\PWM_from_ex\Libraries\XMCLib\inc\xmc4_scu.h ****  *
1199:D:\Naukowe\BLDC_workspace\PWM_from_ex\Libraries\XMCLib\inc\xmc4_scu.h ****  * @param peripheral  The peripheral to be moved out of reset state.\n
1200:D:\Naukowe\BLDC_workspace\PWM_from_ex\Libraries\XMCLib\inc\xmc4_scu.h ****  *        \b Range: Type @ref XMC_SCU_PERIPHERAL_RESET_t enumerates all the peripherals that can be
1201:D:\Naukowe\BLDC_workspace\PWM_from_ex\Libraries\XMCLib\inc\xmc4_scu.h ****  *
1202:D:\Naukowe\BLDC_workspace\PWM_from_ex\Libraries\XMCLib\inc\xmc4_scu.h ****  * @return None
1203:D:\Naukowe\BLDC_workspace\PWM_from_ex\Libraries\XMCLib\inc\xmc4_scu.h ****  *
1204:D:\Naukowe\BLDC_workspace\PWM_from_ex\Libraries\XMCLib\inc\xmc4_scu.h ****  * \par<b>Description</b><br>
1205:D:\Naukowe\BLDC_workspace\PWM_from_ex\Libraries\XMCLib\inc\xmc4_scu.h ****  * Enables the specified peripheral by moving it out of reset state.  \n\n
1206:D:\Naukowe\BLDC_workspace\PWM_from_ex\Libraries\XMCLib\inc\xmc4_scu.h ****  * Any peripheral should be moved out of reset state for executing its functionality.
1207:D:\Naukowe\BLDC_workspace\PWM_from_ex\Libraries\XMCLib\inc\xmc4_scu.h ****  * The API enables the peripheral by setting its respective bit in the \a PRCLR0,  \a PRCLR1 or  \a
1208:D:\Naukowe\BLDC_workspace\PWM_from_ex\Libraries\XMCLib\inc\xmc4_scu.h ****  * register. Status of reset deassertion is automatically stored in the \a PRSTATn register and can
1209:D:\Naukowe\BLDC_workspace\PWM_from_ex\Libraries\XMCLib\inc\xmc4_scu.h ****  * the user software to determine the state of the system and for debug purpose.\n
1210:D:\Naukowe\BLDC_workspace\PWM_from_ex\Libraries\XMCLib\inc\xmc4_scu.h ****  * It is recommended to use following steps to deassert a peripheral reset:\n
1211:D:\Naukowe\BLDC_workspace\PWM_from_ex\Libraries\XMCLib\inc\xmc4_scu.h ****  * - Call \a XMC_SCU_RESET_DeassertPeripheralReset() with desired peripheral identifier.\n
1212:D:\Naukowe\BLDC_workspace\PWM_from_ex\Libraries\XMCLib\inc\xmc4_scu.h ****  * - Call \a XMC_SCU_RESET_IsPeripheralResetAsserted() with desired peripheral identifier to verify
1213:D:\Naukowe\BLDC_workspace\PWM_from_ex\Libraries\XMCLib\inc\xmc4_scu.h ****  * has been enabled.\n
1214:D:\Naukowe\BLDC_workspace\PWM_from_ex\Libraries\XMCLib\inc\xmc4_scu.h ****  * \par<b>Related APIs:</b><BR>
1215:D:\Naukowe\BLDC_workspace\PWM_from_ex\Libraries\XMCLib\inc\xmc4_scu.h ****  * XMC_SCU_RESET_AssertPeripheralReset() \n\n\n
1216:D:\Naukowe\BLDC_workspace\PWM_from_ex\Libraries\XMCLib\inc\xmc4_scu.h ****  */
1217:D:\Naukowe\BLDC_workspace\PWM_from_ex\Libraries\XMCLib\inc\xmc4_scu.h **** void XMC_SCU_RESET_DeassertPeripheralReset(const XMC_SCU_PERIPHERAL_RESET_t peripheral);
1218:D:\Naukowe\BLDC_workspace\PWM_from_ex\Libraries\XMCLib\inc\xmc4_scu.h **** 
1219:D:\Naukowe\BLDC_workspace\PWM_from_ex\Libraries\XMCLib\inc\xmc4_scu.h **** /**
1220:D:\Naukowe\BLDC_workspace\PWM_from_ex\Libraries\XMCLib\inc\xmc4_scu.h ****  *
1221:D:\Naukowe\BLDC_workspace\PWM_from_ex\Libraries\XMCLib\inc\xmc4_scu.h ****  * @param peripheral  The peripheral, whose reset status has to be checked.\n
1222:D:\Naukowe\BLDC_workspace\PWM_from_ex\Libraries\XMCLib\inc\xmc4_scu.h ****  *        \b Range: Type @ref XMC_SCU_PERIPHERAL_RESET_t enumerates all the peripherals.
1223:D:\Naukowe\BLDC_workspace\PWM_from_ex\Libraries\XMCLib\inc\xmc4_scu.h ****  *
1224:D:\Naukowe\BLDC_workspace\PWM_from_ex\Libraries\XMCLib\inc\xmc4_scu.h ****  * @return bool  Status of peripheral reset. \n
1225:D:\Naukowe\BLDC_workspace\PWM_from_ex\Libraries\XMCLib\inc\xmc4_scu.h ****  *               \b Range: \a true if peripheral is in reset state. \a false if peripheral is enabl
1226:D:\Naukowe\BLDC_workspace\PWM_from_ex\Libraries\XMCLib\inc\xmc4_scu.h ****  *
1227:D:\Naukowe\BLDC_workspace\PWM_from_ex\Libraries\XMCLib\inc\xmc4_scu.h ****  * \par<b>Description</b><br>
1228:D:\Naukowe\BLDC_workspace\PWM_from_ex\Libraries\XMCLib\inc\xmc4_scu.h ****  * Checks the reset status of the selected peripheral.\n\n
1229:D:\Naukowe\BLDC_workspace\PWM_from_ex\Libraries\XMCLib\inc\xmc4_scu.h ****  * The API reads the reset status from \a PRSTATn register. Returns true if the peripheral is in
1230:D:\Naukowe\BLDC_workspace\PWM_from_ex\Libraries\XMCLib\inc\xmc4_scu.h ****  * reset state. On power up of the device, all the peripherals will be in reset state. 
1231:D:\Naukowe\BLDC_workspace\PWM_from_ex\Libraries\XMCLib\inc\xmc4_scu.h ****  * If the peripheral is enabled, \a false will be returned as the status.
1232:D:\Naukowe\BLDC_workspace\PWM_from_ex\Libraries\XMCLib\inc\xmc4_scu.h ****  * \par<b>Related APIs:</b><BR>
1233:D:\Naukowe\BLDC_workspace\PWM_from_ex\Libraries\XMCLib\inc\xmc4_scu.h ****  * XMC_SCU_RESET_AssertPeripheralReset(), XMC_SCU_RESET_DeassertPeripheralReset() \n\n\n 
1234:D:\Naukowe\BLDC_workspace\PWM_from_ex\Libraries\XMCLib\inc\xmc4_scu.h ****  */
1235:D:\Naukowe\BLDC_workspace\PWM_from_ex\Libraries\XMCLib\inc\xmc4_scu.h **** bool XMC_SCU_RESET_IsPeripheralResetAsserted(const XMC_SCU_PERIPHERAL_RESET_t peripheral);
1236:D:\Naukowe\BLDC_workspace\PWM_from_ex\Libraries\XMCLib\inc\xmc4_scu.h ****  
1237:D:\Naukowe\BLDC_workspace\PWM_from_ex\Libraries\XMCLib\inc\xmc4_scu.h **** /**
1238:D:\Naukowe\BLDC_workspace\PWM_from_ex\Libraries\XMCLib\inc\xmc4_scu.h ****  *
1239:D:\Naukowe\BLDC_workspace\PWM_from_ex\Libraries\XMCLib\inc\xmc4_scu.h ****  * @param memory  The on-chip RAM type, for which the parity error status has to be cleared.\n
1240:D:\Naukowe\BLDC_workspace\PWM_from_ex\Libraries\XMCLib\inc\xmc4_scu.h ****  *          \b Range: Use type @ref XMC_SCU_PARITY_t to identify the on-chip RAM type. Multiple 
1241:D:\Naukowe\BLDC_workspace\PWM_from_ex\Libraries\XMCLib\inc\xmc4_scu.h ****  *          memory status bits can be cleared by using the \a OR operation.
1242:D:\Naukowe\BLDC_workspace\PWM_from_ex\Libraries\XMCLib\inc\xmc4_scu.h ****  *
1243:D:\Naukowe\BLDC_workspace\PWM_from_ex\Libraries\XMCLib\inc\xmc4_scu.h ****  * @return None
1244:D:\Naukowe\BLDC_workspace\PWM_from_ex\Libraries\XMCLib\inc\xmc4_scu.h ****  *
1245:D:\Naukowe\BLDC_workspace\PWM_from_ex\Libraries\XMCLib\inc\xmc4_scu.h ****  * \par<b>Description</b><br>
1246:D:\Naukowe\BLDC_workspace\PWM_from_ex\Libraries\XMCLib\inc\xmc4_scu.h ****  * Clears the parity error status bit. \n\n
1247:D:\Naukowe\BLDC_workspace\PWM_from_ex\Libraries\XMCLib\inc\xmc4_scu.h ****  * When a memory parity error is detected using the status bits in \a PEFLAG register. It has to 
1248:D:\Naukowe\BLDC_workspace\PWM_from_ex\Libraries\XMCLib\inc\xmc4_scu.h ****  * be cleared by software to detect the parity error from the same memory next time.
1249:D:\Naukowe\BLDC_workspace\PWM_from_ex\Libraries\XMCLib\inc\xmc4_scu.h ****  * The API clears the parity error status bit of the selected peripheral by setting the 
1250:D:\Naukowe\BLDC_workspace\PWM_from_ex\Libraries\XMCLib\inc\xmc4_scu.h ****  * respective bit in the \a PEFLAG register. Status of multiple memory parity errors 
1251:D:\Naukowe\BLDC_workspace\PWM_from_ex\Libraries\XMCLib\inc\xmc4_scu.h ****  * can be cleared by combining the enum values using \a OR operation.
1252:D:\Naukowe\BLDC_workspace\PWM_from_ex\Libraries\XMCLib\inc\xmc4_scu.h ****  * \par<b>Related APIs:</b><BR>
1253:D:\Naukowe\BLDC_workspace\PWM_from_ex\Libraries\XMCLib\inc\xmc4_scu.h ****  * XMC_SCU_PARITY_GetStatus(), XMC_SCU_PARITY_Enable(), XMC_SCU_PARITY_EnableTrapGeneration() \n\n\
1254:D:\Naukowe\BLDC_workspace\PWM_from_ex\Libraries\XMCLib\inc\xmc4_scu.h ****  */
1255:D:\Naukowe\BLDC_workspace\PWM_from_ex\Libraries\XMCLib\inc\xmc4_scu.h **** void XMC_SCU_PARITY_ClearStatus(const uint32_t memory);
1256:D:\Naukowe\BLDC_workspace\PWM_from_ex\Libraries\XMCLib\inc\xmc4_scu.h **** 
1257:D:\Naukowe\BLDC_workspace\PWM_from_ex\Libraries\XMCLib\inc\xmc4_scu.h **** /**
1258:D:\Naukowe\BLDC_workspace\PWM_from_ex\Libraries\XMCLib\inc\xmc4_scu.h ****  *
1259:D:\Naukowe\BLDC_workspace\PWM_from_ex\Libraries\XMCLib\inc\xmc4_scu.h ****  * @param memory  The on-chip RAM type, for which the parity error checking has to be enabled.\n
1260:D:\Naukowe\BLDC_workspace\PWM_from_ex\Libraries\XMCLib\inc\xmc4_scu.h ****  *          \b Range: Use type @ref XMC_SCU_PARITY_t to identify the on-chip RAM type. Multiple 
1261:D:\Naukowe\BLDC_workspace\PWM_from_ex\Libraries\XMCLib\inc\xmc4_scu.h ****  *          memory types can be combined using the \a OR operation.
1262:D:\Naukowe\BLDC_workspace\PWM_from_ex\Libraries\XMCLib\inc\xmc4_scu.h ****  *
1263:D:\Naukowe\BLDC_workspace\PWM_from_ex\Libraries\XMCLib\inc\xmc4_scu.h ****  * @return None  
1264:D:\Naukowe\BLDC_workspace\PWM_from_ex\Libraries\XMCLib\inc\xmc4_scu.h ****  *
1265:D:\Naukowe\BLDC_workspace\PWM_from_ex\Libraries\XMCLib\inc\xmc4_scu.h ****  * \par<b>Description</b><br>
1266:D:\Naukowe\BLDC_workspace\PWM_from_ex\Libraries\XMCLib\inc\xmc4_scu.h ****  * Enables parity error checking for the selected on-chip RAM type.\n\n
1267:D:\Naukowe\BLDC_workspace\PWM_from_ex\Libraries\XMCLib\inc\xmc4_scu.h ****  * Parity error checking can be enabled by setting respective bits in the \a PEEN register.
1268:D:\Naukowe\BLDC_workspace\PWM_from_ex\Libraries\XMCLib\inc\xmc4_scu.h ****  * Additionally parity error can be configured to generate trap when the error is detected,
1269:D:\Naukowe\BLDC_workspace\PWM_from_ex\Libraries\XMCLib\inc\xmc4_scu.h ****  * using the API XMC_SCU_PARITY_EnableTrapGeneration(). Such a trap can be further configured
1270:D:\Naukowe\BLDC_workspace\PWM_from_ex\Libraries\XMCLib\inc\xmc4_scu.h ****  * to generate non maskable interrupt(NMI) using the API XMC_SCU_INTERRUPT_EnableNmiRequest().
1271:D:\Naukowe\BLDC_workspace\PWM_from_ex\Libraries\XMCLib\inc\xmc4_scu.h ****  * \par<b>Related APIs:</b><BR>
1272:D:\Naukowe\BLDC_workspace\PWM_from_ex\Libraries\XMCLib\inc\xmc4_scu.h ****  * XMC_SCU_PARITY_EnableTrapGeneration(), XMC_SCU_INTERRUPT_EnableNmiRequest() \n\n\n
1273:D:\Naukowe\BLDC_workspace\PWM_from_ex\Libraries\XMCLib\inc\xmc4_scu.h ****  */
1274:D:\Naukowe\BLDC_workspace\PWM_from_ex\Libraries\XMCLib\inc\xmc4_scu.h **** void XMC_SCU_PARITY_Enable(const uint32_t memory);
1275:D:\Naukowe\BLDC_workspace\PWM_from_ex\Libraries\XMCLib\inc\xmc4_scu.h **** 
1276:D:\Naukowe\BLDC_workspace\PWM_from_ex\Libraries\XMCLib\inc\xmc4_scu.h **** /**
1277:D:\Naukowe\BLDC_workspace\PWM_from_ex\Libraries\XMCLib\inc\xmc4_scu.h ****  *
1278:D:\Naukowe\BLDC_workspace\PWM_from_ex\Libraries\XMCLib\inc\xmc4_scu.h ****  * @param memory   The on-chip RAM type, for which the parity error checking has to be disabled.\n
1279:D:\Naukowe\BLDC_workspace\PWM_from_ex\Libraries\XMCLib\inc\xmc4_scu.h ****  *          \b Range: Use type @ref XMC_SCU_PARITY_t to identify the on-chip RAM type. Multiple 
1280:D:\Naukowe\BLDC_workspace\PWM_from_ex\Libraries\XMCLib\inc\xmc4_scu.h ****  *          memory types can be combined using the \a OR operation.
1281:D:\Naukowe\BLDC_workspace\PWM_from_ex\Libraries\XMCLib\inc\xmc4_scu.h ****  *
1282:D:\Naukowe\BLDC_workspace\PWM_from_ex\Libraries\XMCLib\inc\xmc4_scu.h ****  * @return None  
1283:D:\Naukowe\BLDC_workspace\PWM_from_ex\Libraries\XMCLib\inc\xmc4_scu.h ****  *
1284:D:\Naukowe\BLDC_workspace\PWM_from_ex\Libraries\XMCLib\inc\xmc4_scu.h ****  * \par<b>Description</b><br>
1285:D:\Naukowe\BLDC_workspace\PWM_from_ex\Libraries\XMCLib\inc\xmc4_scu.h ****  * Disables parity error checking for the selected on-chip RAM type.\n\n
1286:D:\Naukowe\BLDC_workspace\PWM_from_ex\Libraries\XMCLib\inc\xmc4_scu.h ****  * Parity error detection can be disabled by clearing the respective bit in the \a PEEN register.
1287:D:\Naukowe\BLDC_workspace\PWM_from_ex\Libraries\XMCLib\inc\xmc4_scu.h ****  * \par<b>Related APIs:</b><BR>
1288:D:\Naukowe\BLDC_workspace\PWM_from_ex\Libraries\XMCLib\inc\xmc4_scu.h ****  * XMC_SCU_PARITY_Enable(), XMC_SCU_PARITY_DisableTrapGeneration() \n\n\n
1289:D:\Naukowe\BLDC_workspace\PWM_from_ex\Libraries\XMCLib\inc\xmc4_scu.h ****  */
1290:D:\Naukowe\BLDC_workspace\PWM_from_ex\Libraries\XMCLib\inc\xmc4_scu.h **** void XMC_SCU_PARITY_Disable(const uint32_t memory);
1291:D:\Naukowe\BLDC_workspace\PWM_from_ex\Libraries\XMCLib\inc\xmc4_scu.h **** 
1292:D:\Naukowe\BLDC_workspace\PWM_from_ex\Libraries\XMCLib\inc\xmc4_scu.h **** /**
1293:D:\Naukowe\BLDC_workspace\PWM_from_ex\Libraries\XMCLib\inc\xmc4_scu.h ****  *
1294:D:\Naukowe\BLDC_workspace\PWM_from_ex\Libraries\XMCLib\inc\xmc4_scu.h ****  * @param memory  The on-chip RAM type, for which the parity error trap generation has to be enable
1295:D:\Naukowe\BLDC_workspace\PWM_from_ex\Libraries\XMCLib\inc\xmc4_scu.h ****  *          \b Range: Use type @ref XMC_SCU_PARITY_t to identify the on-chip RAM type. Multiple 
1296:D:\Naukowe\BLDC_workspace\PWM_from_ex\Libraries\XMCLib\inc\xmc4_scu.h ****  *          memory types can be combined using the \a OR operation.
1297:D:\Naukowe\BLDC_workspace\PWM_from_ex\Libraries\XMCLib\inc\xmc4_scu.h ****  *
1298:D:\Naukowe\BLDC_workspace\PWM_from_ex\Libraries\XMCLib\inc\xmc4_scu.h ****  * @return None  
1299:D:\Naukowe\BLDC_workspace\PWM_from_ex\Libraries\XMCLib\inc\xmc4_scu.h ****  *
1300:D:\Naukowe\BLDC_workspace\PWM_from_ex\Libraries\XMCLib\inc\xmc4_scu.h ****  * \par<b>Description</b><br>
1301:D:\Naukowe\BLDC_workspace\PWM_from_ex\Libraries\XMCLib\inc\xmc4_scu.h ****  * Enables trap assertion for the parity error source.\n\n
1302:D:\Naukowe\BLDC_workspace\PWM_from_ex\Libraries\XMCLib\inc\xmc4_scu.h ****  * Parity error detection for different types of on-chip RAM can generate trap.
1303:D:\Naukowe\BLDC_workspace\PWM_from_ex\Libraries\XMCLib\inc\xmc4_scu.h ****  * Trap assertion for parity error can be individually enabled by setting the respective bits
1304:D:\Naukowe\BLDC_workspace\PWM_from_ex\Libraries\XMCLib\inc\xmc4_scu.h ****  * in the \a PETE register. The generated trap can be additionally configured to generate
1305:D:\Naukowe\BLDC_workspace\PWM_from_ex\Libraries\XMCLib\inc\xmc4_scu.h ****  * non maskable interrupt(NMI) using the API XMC_SCU_INTERRUPT_EnableNmiRequest().
1306:D:\Naukowe\BLDC_workspace\PWM_from_ex\Libraries\XMCLib\inc\xmc4_scu.h ****  * \par<b>Related APIs:</b><BR>
1307:D:\Naukowe\BLDC_workspace\PWM_from_ex\Libraries\XMCLib\inc\xmc4_scu.h ****  * XMC_SCU_INTERRUPT_EnableNmiRequest(), XMC_SCU_PARITY_DisableTrapGeneration() \n\n\n
1308:D:\Naukowe\BLDC_workspace\PWM_from_ex\Libraries\XMCLib\inc\xmc4_scu.h ****  */
1309:D:\Naukowe\BLDC_workspace\PWM_from_ex\Libraries\XMCLib\inc\xmc4_scu.h **** void XMC_SCU_PARITY_EnableTrapGeneration(const uint32_t memory);
1310:D:\Naukowe\BLDC_workspace\PWM_from_ex\Libraries\XMCLib\inc\xmc4_scu.h **** 
1311:D:\Naukowe\BLDC_workspace\PWM_from_ex\Libraries\XMCLib\inc\xmc4_scu.h **** /**
1312:D:\Naukowe\BLDC_workspace\PWM_from_ex\Libraries\XMCLib\inc\xmc4_scu.h ****  *
1313:D:\Naukowe\BLDC_workspace\PWM_from_ex\Libraries\XMCLib\inc\xmc4_scu.h ****  * @param memory  The on-chip RAM type, for which the parity error trap generation has to be disabl
1314:D:\Naukowe\BLDC_workspace\PWM_from_ex\Libraries\XMCLib\inc\xmc4_scu.h ****  *          \b Range: Use type @ref XMC_SCU_PARITY_t to identify the on-chip RAM type. Multiple 
1315:D:\Naukowe\BLDC_workspace\PWM_from_ex\Libraries\XMCLib\inc\xmc4_scu.h ****  *          memory types can be combined using the \a OR operation.
1316:D:\Naukowe\BLDC_workspace\PWM_from_ex\Libraries\XMCLib\inc\xmc4_scu.h ****  *
1317:D:\Naukowe\BLDC_workspace\PWM_from_ex\Libraries\XMCLib\inc\xmc4_scu.h ****  * @return None  
1318:D:\Naukowe\BLDC_workspace\PWM_from_ex\Libraries\XMCLib\inc\xmc4_scu.h ****  *
1319:D:\Naukowe\BLDC_workspace\PWM_from_ex\Libraries\XMCLib\inc\xmc4_scu.h ****  * \par<b>Description</b><br>
1320:D:\Naukowe\BLDC_workspace\PWM_from_ex\Libraries\XMCLib\inc\xmc4_scu.h ****  * Disables the assertion of trap for the parity error source.\n\n
1321:D:\Naukowe\BLDC_workspace\PWM_from_ex\Libraries\XMCLib\inc\xmc4_scu.h ****  * Trap assertion can be disabled by clearing the respective bit of the RAM type in the \a PETE reg
1322:D:\Naukowe\BLDC_workspace\PWM_from_ex\Libraries\XMCLib\inc\xmc4_scu.h ****  *
1323:D:\Naukowe\BLDC_workspace\PWM_from_ex\Libraries\XMCLib\inc\xmc4_scu.h ****  * \par<b>Related APIs:</b><BR>
1324:D:\Naukowe\BLDC_workspace\PWM_from_ex\Libraries\XMCLib\inc\xmc4_scu.h ****  * XMC_SCU_PARITY_EnableTrapGeneration() \n\n\n
1325:D:\Naukowe\BLDC_workspace\PWM_from_ex\Libraries\XMCLib\inc\xmc4_scu.h ****  */
1326:D:\Naukowe\BLDC_workspace\PWM_from_ex\Libraries\XMCLib\inc\xmc4_scu.h **** void XMC_SCU_PARITY_DisableTrapGeneration(const uint32_t memory);
1327:D:\Naukowe\BLDC_workspace\PWM_from_ex\Libraries\XMCLib\inc\xmc4_scu.h **** 
1328:D:\Naukowe\BLDC_workspace\PWM_from_ex\Libraries\XMCLib\inc\xmc4_scu.h **** /**
1329:D:\Naukowe\BLDC_workspace\PWM_from_ex\Libraries\XMCLib\inc\xmc4_scu.h ****  *
1330:D:\Naukowe\BLDC_workspace\PWM_from_ex\Libraries\XMCLib\inc\xmc4_scu.h ****  * @return uint32_t  Status of parity error detection for the on-chip RAM modules.\n
1331:D:\Naukowe\BLDC_workspace\PWM_from_ex\Libraries\XMCLib\inc\xmc4_scu.h ****  *          \b Range: Use type @ref XMC_SCU_PARITY_t to get the bit mask of each RAM module type.
1332:D:\Naukowe\BLDC_workspace\PWM_from_ex\Libraries\XMCLib\inc\xmc4_scu.h ****  *
1333:D:\Naukowe\BLDC_workspace\PWM_from_ex\Libraries\XMCLib\inc\xmc4_scu.h ****  * \par<b>Description</b><br>
1334:D:\Naukowe\BLDC_workspace\PWM_from_ex\Libraries\XMCLib\inc\xmc4_scu.h ****  * Provides the status of parity error detection for the on-chip RAM modules.\n\n
1335:D:\Naukowe\BLDC_workspace\PWM_from_ex\Libraries\XMCLib\inc\xmc4_scu.h ****  * Parity error status information is obtained from the \a PEFLAG register.
1336:D:\Naukowe\BLDC_workspace\PWM_from_ex\Libraries\XMCLib\inc\xmc4_scu.h ****  * If a particular RAM module has parity error, its respective bit field will be set to 1 in the 
1337:D:\Naukowe\BLDC_workspace\PWM_from_ex\Libraries\XMCLib\inc\xmc4_scu.h ****  * returned value. A check for the status of a particular RAM module can be done by
1338:D:\Naukowe\BLDC_workspace\PWM_from_ex\Libraries\XMCLib\inc\xmc4_scu.h ****  * masking the returned value with the RAM module identifier from the type @ref XMC_SCU_PARITY_t.
1339:D:\Naukowe\BLDC_workspace\PWM_from_ex\Libraries\XMCLib\inc\xmc4_scu.h ****  * \par<b>Related APIs:</b><BR>
1340:D:\Naukowe\BLDC_workspace\PWM_from_ex\Libraries\XMCLib\inc\xmc4_scu.h ****  * XMC_SCU_PARITY_ClearStatus() \n\n\n
1341:D:\Naukowe\BLDC_workspace\PWM_from_ex\Libraries\XMCLib\inc\xmc4_scu.h ****  */
1342:D:\Naukowe\BLDC_workspace\PWM_from_ex\Libraries\XMCLib\inc\xmc4_scu.h **** uint32_t XMC_SCU_PARITY_GetStatus(void);  
1343:D:\Naukowe\BLDC_workspace\PWM_from_ex\Libraries\XMCLib\inc\xmc4_scu.h **** 
1344:D:\Naukowe\BLDC_workspace\PWM_from_ex\Libraries\XMCLib\inc\xmc4_scu.h **** /**
1345:D:\Naukowe\BLDC_workspace\PWM_from_ex\Libraries\XMCLib\inc\xmc4_scu.h ****  *
1346:D:\Naukowe\BLDC_workspace\PWM_from_ex\Libraries\XMCLib\inc\xmc4_scu.h ****  * @param clock  Peripheral for which the clock has to be enabled. \n
1347:D:\Naukowe\BLDC_workspace\PWM_from_ex\Libraries\XMCLib\inc\xmc4_scu.h ****  *        \b Range: Use type @ref XMC_SCU_CLOCK_t to select the peripheral.
1348:D:\Naukowe\BLDC_workspace\PWM_from_ex\Libraries\XMCLib\inc\xmc4_scu.h ****  *
1349:D:\Naukowe\BLDC_workspace\PWM_from_ex\Libraries\XMCLib\inc\xmc4_scu.h ****  * @return None
1350:D:\Naukowe\BLDC_workspace\PWM_from_ex\Libraries\XMCLib\inc\xmc4_scu.h ****  *
1351:D:\Naukowe\BLDC_workspace\PWM_from_ex\Libraries\XMCLib\inc\xmc4_scu.h ****  * \par<b>Description</b><br>
1352:D:\Naukowe\BLDC_workspace\PWM_from_ex\Libraries\XMCLib\inc\xmc4_scu.h ****  * Enables the source clock for selected peripheral.\n\n
1353:D:\Naukowe\BLDC_workspace\PWM_from_ex\Libraries\XMCLib\inc\xmc4_scu.h ****  * The various outputs of Clock Generation Unit (CGU) can be individually enabled by setting the pe
1354:D:\Naukowe\BLDC_workspace\PWM_from_ex\Libraries\XMCLib\inc\xmc4_scu.h ****  * specific bit in the \a CLKSET register.\n
1355:D:\Naukowe\BLDC_workspace\PWM_from_ex\Libraries\XMCLib\inc\xmc4_scu.h ****  * It is recommended to use following steps to verify whether a source clock of peripheral is enabl
1356:D:\Naukowe\BLDC_workspace\PWM_from_ex\Libraries\XMCLib\inc\xmc4_scu.h ****  * - Call \a XMC_SCU_CLOCK_EnableClock() with desired peripheral identifier.\n
1357:D:\Naukowe\BLDC_workspace\PWM_from_ex\Libraries\XMCLib\inc\xmc4_scu.h ****  * - Call \a XMC_SCU_CLOCK_IsClockEnabled() with same peripheral identifier to verify whether the c
1358:D:\Naukowe\BLDC_workspace\PWM_from_ex\Libraries\XMCLib\inc\xmc4_scu.h ****  * \par<b>Related APIs:</b><BR>
1359:D:\Naukowe\BLDC_workspace\PWM_from_ex\Libraries\XMCLib\inc\xmc4_scu.h ****  * XMC_SCU_CLOCK_DisableClock(), XMC_SCU_RESET_DeassertPeripheralReset() \n\n\n
1360:D:\Naukowe\BLDC_workspace\PWM_from_ex\Libraries\XMCLib\inc\xmc4_scu.h ****  */
1361:D:\Naukowe\BLDC_workspace\PWM_from_ex\Libraries\XMCLib\inc\xmc4_scu.h **** void XMC_SCU_CLOCK_EnableClock(const XMC_SCU_CLOCK_t clock);
1362:D:\Naukowe\BLDC_workspace\PWM_from_ex\Libraries\XMCLib\inc\xmc4_scu.h **** 
1363:D:\Naukowe\BLDC_workspace\PWM_from_ex\Libraries\XMCLib\inc\xmc4_scu.h **** /**
1364:D:\Naukowe\BLDC_workspace\PWM_from_ex\Libraries\XMCLib\inc\xmc4_scu.h ****  *
1365:D:\Naukowe\BLDC_workspace\PWM_from_ex\Libraries\XMCLib\inc\xmc4_scu.h ****  * @param clock  Peripheral for which the clock has to be disabled. \n
1366:D:\Naukowe\BLDC_workspace\PWM_from_ex\Libraries\XMCLib\inc\xmc4_scu.h ****  *        \b Range: Use type @ref XMC_SCU_CLOCK_t to select the peripheral.
1367:D:\Naukowe\BLDC_workspace\PWM_from_ex\Libraries\XMCLib\inc\xmc4_scu.h ****  *
1368:D:\Naukowe\BLDC_workspace\PWM_from_ex\Libraries\XMCLib\inc\xmc4_scu.h ****  * @return None
1369:D:\Naukowe\BLDC_workspace\PWM_from_ex\Libraries\XMCLib\inc\xmc4_scu.h ****  *
1370:D:\Naukowe\BLDC_workspace\PWM_from_ex\Libraries\XMCLib\inc\xmc4_scu.h ****  * \par<b>Description</b><br>
1371:D:\Naukowe\BLDC_workspace\PWM_from_ex\Libraries\XMCLib\inc\xmc4_scu.h ****  * Disables source clock for the peripheral selected.\n\n
1372:D:\Naukowe\BLDC_workspace\PWM_from_ex\Libraries\XMCLib\inc\xmc4_scu.h ****  * The various outputs of Clock Generation Unit (CGU) can be individually disabled  by setting the 
1373:D:\Naukowe\BLDC_workspace\PWM_from_ex\Libraries\XMCLib\inc\xmc4_scu.h ****  * specific bits in the \a CLKCLR register.\n
1374:D:\Naukowe\BLDC_workspace\PWM_from_ex\Libraries\XMCLib\inc\xmc4_scu.h ****  * It is recommended to use following steps to verify whether clock source of the peripheral is ena
1375:D:\Naukowe\BLDC_workspace\PWM_from_ex\Libraries\XMCLib\inc\xmc4_scu.h ****  * - Call \a XMC_SCU_CLOCK_DisableClock with desired peripheral identifier.\n
1376:D:\Naukowe\BLDC_workspace\PWM_from_ex\Libraries\XMCLib\inc\xmc4_scu.h ****  * - Call \a XMC_SCU_CLOCK_IsClockEnabled with same peripheral identifier to verify whether periphe
1377:D:\Naukowe\BLDC_workspace\PWM_from_ex\Libraries\XMCLib\inc\xmc4_scu.h ****  * \par<b>Related APIs:</b><BR>
1378:D:\Naukowe\BLDC_workspace\PWM_from_ex\Libraries\XMCLib\inc\xmc4_scu.h ****  * XMC_SCU_CLOCK_EnableClock(), XMC_SCU_RESET_AssertPeripheralReset() \n\n\n
1379:D:\Naukowe\BLDC_workspace\PWM_from_ex\Libraries\XMCLib\inc\xmc4_scu.h ****  */
1380:D:\Naukowe\BLDC_workspace\PWM_from_ex\Libraries\XMCLib\inc\xmc4_scu.h **** void XMC_SCU_CLOCK_DisableClock(const XMC_SCU_CLOCK_t clock);
1381:D:\Naukowe\BLDC_workspace\PWM_from_ex\Libraries\XMCLib\inc\xmc4_scu.h **** 
1382:D:\Naukowe\BLDC_workspace\PWM_from_ex\Libraries\XMCLib\inc\xmc4_scu.h **** /**
1383:D:\Naukowe\BLDC_workspace\PWM_from_ex\Libraries\XMCLib\inc\xmc4_scu.h ****  *
1384:D:\Naukowe\BLDC_workspace\PWM_from_ex\Libraries\XMCLib\inc\xmc4_scu.h ****  * @param clock   Peripheral for which the clock status has to be checked. \n
1385:D:\Naukowe\BLDC_workspace\PWM_from_ex\Libraries\XMCLib\inc\xmc4_scu.h ****  *        \b Range: Use type @ref XMC_SCU_CLOCK_t to select the peripheral.
1386:D:\Naukowe\BLDC_workspace\PWM_from_ex\Libraries\XMCLib\inc\xmc4_scu.h ****  *
1387:D:\Naukowe\BLDC_workspace\PWM_from_ex\Libraries\XMCLib\inc\xmc4_scu.h ****  * @return bool  Status of peripheral clock.\n
1388:D:\Naukowe\BLDC_workspace\PWM_from_ex\Libraries\XMCLib\inc\xmc4_scu.h ****  *        \b Range: \a true if peripheral clock is enabled. \a false if peripheral clock is disable
1389:D:\Naukowe\BLDC_workspace\PWM_from_ex\Libraries\XMCLib\inc\xmc4_scu.h ****  *
1390:D:\Naukowe\BLDC_workspace\PWM_from_ex\Libraries\XMCLib\inc\xmc4_scu.h ****  * \par<b>Description</b><br>
1391:D:\Naukowe\BLDC_workspace\PWM_from_ex\Libraries\XMCLib\inc\xmc4_scu.h ****  * Checks the status of peripheral source clock.\n\n
1392:D:\Naukowe\BLDC_workspace\PWM_from_ex\Libraries\XMCLib\inc\xmc4_scu.h ****  * The status of peripheral source clock is read from the \a CLKSTATn register. 
1393:D:\Naukowe\BLDC_workspace\PWM_from_ex\Libraries\XMCLib\inc\xmc4_scu.h ****  * Returns \a true if clock is enabled and returns \a false otherwise.
1394:D:\Naukowe\BLDC_workspace\PWM_from_ex\Libraries\XMCLib\inc\xmc4_scu.h ****  * \par<b>Related APIs:</b><BR>
1395:D:\Naukowe\BLDC_workspace\PWM_from_ex\Libraries\XMCLib\inc\xmc4_scu.h ****  * XMC_SCU_CLOCK_EnableClock(), XMC_SCU_CLOCK_DisableClock() \n\n\n
1396:D:\Naukowe\BLDC_workspace\PWM_from_ex\Libraries\XMCLib\inc\xmc4_scu.h ****  */
1397:D:\Naukowe\BLDC_workspace\PWM_from_ex\Libraries\XMCLib\inc\xmc4_scu.h **** bool XMC_SCU_CLOCK_IsClockEnabled(const XMC_SCU_CLOCK_t clock);
1398:D:\Naukowe\BLDC_workspace\PWM_from_ex\Libraries\XMCLib\inc\xmc4_scu.h **** 
1399:D:\Naukowe\BLDC_workspace\PWM_from_ex\Libraries\XMCLib\inc\xmc4_scu.h **** /**
1400:D:\Naukowe\BLDC_workspace\PWM_from_ex\Libraries\XMCLib\inc\xmc4_scu.h ****  *
1401:D:\Naukowe\BLDC_workspace\PWM_from_ex\Libraries\XMCLib\inc\xmc4_scu.h ****  * @param source  Source of clock for fSYS.\n
1402:D:\Naukowe\BLDC_workspace\PWM_from_ex\Libraries\XMCLib\inc\xmc4_scu.h ****  *        \b Range: Use type @ref XMC_SCU_CLOCK_SYSCLKSRC_t to select the source of clock.\n
1403:D:\Naukowe\BLDC_workspace\PWM_from_ex\Libraries\XMCLib\inc\xmc4_scu.h ****  *                  XMC_SCU_CLOCK_SYSCLKSRC_OFI for selecting internal fast clock as fSYS.\n
1404:D:\Naukowe\BLDC_workspace\PWM_from_ex\Libraries\XMCLib\inc\xmc4_scu.h ****  *                  XMC_SCU_CLOCK_SYSCLKSRC_PLL for selecting the output of PLL fPLL as fSYS.
1405:D:\Naukowe\BLDC_workspace\PWM_from_ex\Libraries\XMCLib\inc\xmc4_scu.h ****  *
1406:D:\Naukowe\BLDC_workspace\PWM_from_ex\Libraries\XMCLib\inc\xmc4_scu.h ****  * @return None
1407:D:\Naukowe\BLDC_workspace\PWM_from_ex\Libraries\XMCLib\inc\xmc4_scu.h ****  *
1408:D:\Naukowe\BLDC_workspace\PWM_from_ex\Libraries\XMCLib\inc\xmc4_scu.h ****  * \par<b>Description</b><br>
1409:D:\Naukowe\BLDC_workspace\PWM_from_ex\Libraries\XMCLib\inc\xmc4_scu.h ****  * Selects the source for system clock (fSYS).\n\n
1410:D:\Naukowe\BLDC_workspace\PWM_from_ex\Libraries\XMCLib\inc\xmc4_scu.h ****  * System clock is selected by setting \a SYSSEL bits in the \a SYSCLKCR register.
1411:D:\Naukowe\BLDC_workspace\PWM_from_ex\Libraries\XMCLib\inc\xmc4_scu.h ****  * If \a XMC_SCU_CLOCK_SYSCLKSRC_PLL is selected, then the dividers of the PLL have to be
1412:D:\Naukowe\BLDC_workspace\PWM_from_ex\Libraries\XMCLib\inc\xmc4_scu.h ****  * additionally configured to achieve the required system clock frequency. 
1413:D:\Naukowe\BLDC_workspace\PWM_from_ex\Libraries\XMCLib\inc\xmc4_scu.h ****   * \par<b>Related APIs:</b><BR>
1414:D:\Naukowe\BLDC_workspace\PWM_from_ex\Libraries\XMCLib\inc\xmc4_scu.h ****  * XMC_SCU_CLOCK_StartSystemPll(), XMC_SCU_CLOCK_EnableHighPerformanceOscillator() \n\n\n
1415:D:\Naukowe\BLDC_workspace\PWM_from_ex\Libraries\XMCLib\inc\xmc4_scu.h ****  */
1416:D:\Naukowe\BLDC_workspace\PWM_from_ex\Libraries\XMCLib\inc\xmc4_scu.h **** void XMC_SCU_CLOCK_SetSystemClockSource(const XMC_SCU_CLOCK_SYSCLKSRC_t source);
1417:D:\Naukowe\BLDC_workspace\PWM_from_ex\Libraries\XMCLib\inc\xmc4_scu.h **** 
1418:D:\Naukowe\BLDC_workspace\PWM_from_ex\Libraries\XMCLib\inc\xmc4_scu.h **** /**
1419:D:\Naukowe\BLDC_workspace\PWM_from_ex\Libraries\XMCLib\inc\xmc4_scu.h ****  * @return XMC_SCU_CLOCK_SYSCLKSRC_t   Source of clock for fSYS.\n
1420:D:\Naukowe\BLDC_workspace\PWM_from_ex\Libraries\XMCLib\inc\xmc4_scu.h ****  *        \b Range: Use type @ref XMC_SCU_CLOCK_SYSCLKSRC_t to select the source of clock.\n
1421:D:\Naukowe\BLDC_workspace\PWM_from_ex\Libraries\XMCLib\inc\xmc4_scu.h ****  *                  XMC_SCU_CLOCK_SYSCLKSRC_OFI - internal fast clock selected as fSYS.\n
1422:D:\Naukowe\BLDC_workspace\PWM_from_ex\Libraries\XMCLib\inc\xmc4_scu.h ****  *                  XMC_SCU_CLOCK_SYSCLKSRC_PLL - output of PLL fPLL selected as fSYS.
1423:D:\Naukowe\BLDC_workspace\PWM_from_ex\Libraries\XMCLib\inc\xmc4_scu.h ****  *
1424:D:\Naukowe\BLDC_workspace\PWM_from_ex\Libraries\XMCLib\inc\xmc4_scu.h ****  * \par<b>Description</b><br>
1425:D:\Naukowe\BLDC_workspace\PWM_from_ex\Libraries\XMCLib\inc\xmc4_scu.h ****  * Provides the selected source of system clock (fSYS). \n\n
1426:D:\Naukowe\BLDC_workspace\PWM_from_ex\Libraries\XMCLib\inc\xmc4_scu.h ****  * Selected source of fSYS is obtained by reading \a SYSSEL bits of \a SYSCLKCR register.
1427:D:\Naukowe\BLDC_workspace\PWM_from_ex\Libraries\XMCLib\inc\xmc4_scu.h ****  * \par<b>Related APIs:</b><BR>
1428:D:\Naukowe\BLDC_workspace\PWM_from_ex\Libraries\XMCLib\inc\xmc4_scu.h ****  * XMC_SCU_CLOCK_SetSystemClockSource(), XMC_SCU_CLOCK_GetSystemPllClockSourceFrequency() \n\n\n
1429:D:\Naukowe\BLDC_workspace\PWM_from_ex\Libraries\XMCLib\inc\xmc4_scu.h ****  */
1430:D:\Naukowe\BLDC_workspace\PWM_from_ex\Libraries\XMCLib\inc\xmc4_scu.h **** __STATIC_INLINE XMC_SCU_CLOCK_SYSCLKSRC_t XMC_SCU_CLOCK_GetSystemClockSource(void)
1431:D:\Naukowe\BLDC_workspace\PWM_from_ex\Libraries\XMCLib\inc\xmc4_scu.h **** {
1432:D:\Naukowe\BLDC_workspace\PWM_from_ex\Libraries\XMCLib\inc\xmc4_scu.h ****   return (XMC_SCU_CLOCK_SYSCLKSRC_t)(SCU_CLK->SYSCLKCR & SCU_CLK_SYSCLKCR_SYSSEL_Msk);
1433:D:\Naukowe\BLDC_workspace\PWM_from_ex\Libraries\XMCLib\inc\xmc4_scu.h **** }
1434:D:\Naukowe\BLDC_workspace\PWM_from_ex\Libraries\XMCLib\inc\xmc4_scu.h **** 
1435:D:\Naukowe\BLDC_workspace\PWM_from_ex\Libraries\XMCLib\inc\xmc4_scu.h **** /**
1436:D:\Naukowe\BLDC_workspace\PWM_from_ex\Libraries\XMCLib\inc\xmc4_scu.h ****  *
1437:D:\Naukowe\BLDC_workspace\PWM_from_ex\Libraries\XMCLib\inc\xmc4_scu.h ****  * @param source   Source of clock for USB and SDMMC(fUSB/SDMMC).\n
1438:D:\Naukowe\BLDC_workspace\PWM_from_ex\Libraries\XMCLib\inc\xmc4_scu.h ****  *        \b Range: Use type @ref XMC_SCU_CLOCK_USBCLKSRC_t to select the source of clock.\n
1439:D:\Naukowe\BLDC_workspace\PWM_from_ex\Libraries\XMCLib\inc\xmc4_scu.h ****  *                  XMC_SCU_CLOCK_USBCLKSRC_USBPLL - output of USB PLL as source of USB clock(fUSB/
1440:D:\Naukowe\BLDC_workspace\PWM_from_ex\Libraries\XMCLib\inc\xmc4_scu.h ****  *                  XMC_SCU_CLOCK_USBCLKSRC_SYSPLL - output of PLL fPLL as source of USB clock(fUSB
1441:D:\Naukowe\BLDC_workspace\PWM_from_ex\Libraries\XMCLib\inc\xmc4_scu.h ****  *
1442:D:\Naukowe\BLDC_workspace\PWM_from_ex\Libraries\XMCLib\inc\xmc4_scu.h ****  * @return None
1443:D:\Naukowe\BLDC_workspace\PWM_from_ex\Libraries\XMCLib\inc\xmc4_scu.h ****  *
1444:D:\Naukowe\BLDC_workspace\PWM_from_ex\Libraries\XMCLib\inc\xmc4_scu.h ****  * \par<b>Description</b><br>
1445:D:\Naukowe\BLDC_workspace\PWM_from_ex\Libraries\XMCLib\inc\xmc4_scu.h ****  * Selects the source of USB/SDMMC clock (fUSB/SDMMC).\n\n
